GAS LISTING /var/folders/p3/1m0sjft54dl35g20n661khb80000gn/T//ccm0rCo6.s 			page 1


   1              		.file	"main.c"
   2              		.option nopic
   3              		.attribute arch, "rv32i2p0_m2p0_a2p0_c2p0"
   4              		.attribute unaligned_access, 0
   5              		.attribute stack_align, 16
   6              		.text
   7              	.Ltext0:
   8              		.cfi_sections	.debug_frame
   9              		.section	.text.rtcInit,"ax",@progbits
  10              		.align	1
  11              		.globl	rtcInit
  13              	rtcInit:
  14              	.LFB2:
  15              		.file 1 "main.c"
   1:main.c        **** #include "gd32vf103.h"
   2:main.c        **** #include "drivers.h"
   3:main.c        **** #include "adc.h"
   4:main.c        **** #include "lcd.h"
   5:main.c        **** #include "usart.h"
   6:main.c        **** #define EI 1
   7:main.c        **** #define DI 0
   8:main.c        **** 
   9:main.c        **** void rtcInit(void){
  16              		.loc 1 9 19
  17              		.cfi_startproc
  10:main.c        ****    // enable power managemenet unit - perhaps enabled by default
  11:main.c        ****    rcu_periph_clock_enable(RCU_PMU);
  18              		.loc 1 11 4
   9:main.c        ****    // enable power managemenet unit - perhaps enabled by default
  19              		.loc 1 9 19 is_stmt 0
  20 0000 4111     		addi	sp,sp,-16
  21              	.LCFI0:
  22              		.cfi_def_cfa_offset 16
  23              		.loc 1 11 4
  24 0002 1305C071 		li	a0,1820
   9:main.c        ****    // enable power managemenet unit - perhaps enabled by default
  25              		.loc 1 9 19
  26 0006 06C6     		sw	ra,12(sp)
  27              		.cfi_offset 1, -4
  28              		.loc 1 11 4
  29 0008 97000000 		call	rcu_periph_clock_enable
  29      E7800000 
  30              	.LVL0:
  12:main.c        ****    // enable write access to the registers in the backup domain
  13:main.c        ****    pmu_backup_write_enable();
  31              		.loc 1 13 4 is_stmt 1
  32 0010 97000000 		call	pmu_backup_write_enable
  32      E7800000 
  33              	.LVL1:
  14:main.c        ****    // enable backup domain
  15:main.c        ****    rcu_periph_clock_enable(RCU_BKPI);
  34              		.loc 1 15 4
  35 0018 1305B071 		li	a0,1819
  36 001c 97000000 		call	rcu_periph_clock_enable
  36      E7800000 
  37              	.LVL2:
  16:main.c        ****    // reset backup domain registers
GAS LISTING /var/folders/p3/1m0sjft54dl35g20n661khb80000gn/T//ccm0rCo6.s 			page 2


  17:main.c        ****    bkp_deinit();
  38              		.loc 1 17 4
  39 0024 97000000 		call	bkp_deinit
  39      E7800000 
  40              	.LVL3:
  18:main.c        ****    // set the results of a previous calibration procedure
  19:main.c        ****    // bkp_rtc_calibration_value_set(x);
  20:main.c        **** 
  21:main.c        ****    // setup RTC
  22:main.c        ****    // enable external low speed XO
  23:main.c        ****    //rcu_osci_on(RCU_LXTAL);
  24:main.c        ****    if (rcu_osci_stab_wait(RCU_HXTAL)) {
  41              		.loc 1 24 4
  42              		.loc 1 24 8 is_stmt 0
  43 002c 4145     		li	a0,16
  44 002e 97000000 		call	rcu_osci_stab_wait
  44      E7800000 
  45              	.LVL4:
  46              		.loc 1 24 7
  47 0036 21CD     		beq	a0,zero,.L1
  25:main.c        ****      // use external low speed oscillaotr, i.e. 32.768 kHz
  26:main.c        ****      rcu_rtc_clock_config(RCU_RTCSRC_HXTAL_DIV_128);
  48              		.loc 1 26 6 is_stmt 1
  49 0038 13050030 		li	a0,768
  50 003c 97000000 		call	rcu_rtc_clock_config
  50      E7800000 
  51              	.LVL5:
  27:main.c        ****      rcu_periph_clock_enable(RCU_RTC);
  52              		.loc 1 27 6
  53 0044 0565     		li	a0,4096
  54 0046 1305F580 		addi	a0,a0,-2033
  55 004a 97000000 		call	rcu_periph_clock_enable
  55      E7800000 
  56              	.LVL6:
  28:main.c        ****      // wait until shadow registers are synced from the backup domain
  29:main.c        ****      // over the APB bus
  30:main.c        ****      rtc_register_sync_wait();
  57              		.loc 1 30 6
  58 0052 97000000 		call	rtc_register_sync_wait
  58      E7800000 
  59              	.LVL7:
  31:main.c        ****      // wait until shadow register changes are synced over APB
  32:main.c        ****      // to the backup doamin
  33:main.c        ****      rtc_lwoff_wait();
  60              		.loc 1 33 6
  61 005a 97000000 		call	rtc_lwoff_wait
  61      E7800000 
  62              	.LVL8:
  34:main.c        ****      // prescale to 1 second
  35:main.c        ****      rtc_prescaler_set(62500 - 1);
  63              		.loc 1 35 6
  64 0062 3D65     		li	a0,61440
  65 0064 13053542 		addi	a0,a0,1059
  66 0068 97000000 		call	rtc_prescaler_set
  66      E7800000 
  67              	.LVL9:
  36:main.c        ****      rtc_lwoff_wait();
GAS LISTING /var/folders/p3/1m0sjft54dl35g20n661khb80000gn/T//ccm0rCo6.s 			page 3


  68              		.loc 1 36 6
  69 0070 97000000 		call	rtc_lwoff_wait
  69      E7800000 
  70              	.LVL10:
  37:main.c        ****      rtc_flag_clear(RTC_INT_FLAG_SECOND);
  71              		.loc 1 37 6
  72 0078 0545     		li	a0,1
  73 007a 97000000 		call	rtc_flag_clear
  73      E7800000 
  74              	.LVL11:
  38:main.c        ****      //rtc_interrupt_enable(RTC_INT_SECOND);
  39:main.c        ****      rtc_lwoff_wait();
  75              		.loc 1 39 6
  40:main.c        ****    }
  41:main.c        **** }
  76              		.loc 1 41 1 is_stmt 0
  77 0082 B240     		lw	ra,12(sp)
  78              		.cfi_remember_state
  79              		.cfi_restore 1
  80 0084 4101     		addi	sp,sp,16
  81              	.LCFI1:
  82              		.cfi_def_cfa_offset 0
  39:main.c        ****    }
  83              		.loc 1 39 6
  84 0086 17030000 		tail	rtc_lwoff_wait
  84      67000300 
  85              	.LVL12:
  86              	.L1:
  87              	.LCFI2:
  88              		.cfi_restore_state
  89              		.loc 1 41 1
  90 008e B240     		lw	ra,12(sp)
  91              		.cfi_restore 1
  92 0090 4101     		addi	sp,sp,16
  93              	.LCFI3:
  94              		.cfi_def_cfa_offset 0
  95 0092 8280     		jr	ra
  96              		.cfi_endproc
  97              	.LFE2:
  99              		.section	.text.startup.main,"ax",@progbits
 100              		.align	1
 101              		.globl	main
 103              	main:
 104              	.LFB3:
  42:main.c        **** 
  43:main.c        **** int main(void){
 105              		.loc 1 43 15 is_stmt 1
 106              		.cfi_startproc
  44:main.c        ****     int ms=0, s=0, key, pKey=-1, c=0, idle=0, rtc, hh, mm, ss;
 107              		.loc 1 44 5
 108              	.LVL13:
  45:main.c        ****     int lookUpTbl[16]={1,4,7,14,2,5,8,0,3,6,9,15,10,11,12,13};
 109              		.loc 1 45 5
  43:main.c        ****     int ms=0, s=0, key, pKey=-1, c=0, idle=0, rtc, hh, mm, ss;
 110              		.loc 1 43 15 is_stmt 0
 111 0000 1971     		addi	sp,sp,-128
 112              	.LCFI4:
GAS LISTING /var/folders/p3/1m0sjft54dl35g20n661khb80000gn/T//ccm0rCo6.s 			page 4


 113              		.cfi_def_cfa_offset 128
 114              		.loc 1 45 9
 115 0002 B7050000 		lui	a1,%hi(.LANCHOR0)
 116 0006 13060004 		li	a2,64
 117 000a 93850500 		addi	a1,a1,%lo(.LANCHOR0)
 118 000e 0A85     		mv	a0,sp
  43:main.c        ****     int ms=0, s=0, key, pKey=-1, c=0, idle=0, rtc, hh, mm, ss;
 119              		.loc 1 43 15
 120 0010 86DE     		sw	ra,124(sp)
 121 0012 A2DC     		sw	s0,120(sp)
 122 0014 A6DA     		sw	s1,116(sp)
 123 0016 CAD8     		sw	s2,112(sp)
 124 0018 D2D4     		sw	s4,104(sp)
 125 001a D6D2     		sw	s5,100(sp)
 126 001c DAD0     		sw	s6,96(sp)
 127 001e DECE     		sw	s7,92(sp)
 128 0020 E2CC     		sw	s8,88(sp)
 129 0022 E6CA     		sw	s9,84(sp)
 130 0024 EAC8     		sw	s10,80(sp)
 131 0026 CED6     		sw	s3,108(sp)
 132 0028 EEC6     		sw	s11,76(sp)
 133              		.cfi_offset 1, -4
 134              		.cfi_offset 8, -8
 135              		.cfi_offset 9, -12
 136              		.cfi_offset 18, -16
 137              		.cfi_offset 20, -24
 138              		.cfi_offset 21, -28
 139              		.cfi_offset 22, -32
 140              		.cfi_offset 23, -36
 141              		.cfi_offset 24, -40
 142              		.cfi_offset 25, -44
 143              		.cfi_offset 26, -48
 144              		.cfi_offset 19, -20
 145              		.cfi_offset 27, -52
 146              		.loc 1 45 9
 147 002a 97000000 		call	memcpy
 147      E7800000 
 148              	.LVL14:
  46:main.c        ****     int dac=0, speed=-100, firstKey = -1, secondKey = -1, position = 10, combineKeys = -1;
 149              		.loc 1 46 5 is_stmt 1
  47:main.c        ****     int adcr, tmpr;
 150              		.loc 1 47 5
  48:main.c        ****     char digits[10][10]={"Zero ","One  ","Two  ","Three","Four ","Five ","Six  ","Seven","Eight","N
 151              		.loc 1 48 5
  49:main.c        ****     //char time[7]={0};
  50:main.c        **** 
  51:main.c        ****     t5omsi();                               // Initialize timer5 1kHz
 152              		.loc 1 51 5
 153 0032 97000000 		call	t5omsi
 153      E7800000 
 154              	.LVL15:
  52:main.c        ****     colinit();                              // Initialize column toolbox
 155              		.loc 1 52 5
 156 003a 97000000 		call	colinit
 156      E7800000 
 157              	.LVL16:
  53:main.c        ****     l88init();                              // Initialize 8*8 led toolbox
GAS LISTING /var/folders/p3/1m0sjft54dl35g20n661khb80000gn/T//ccm0rCo6.s 			page 5


 158              		.loc 1 53 5
 159 0042 97000000 		call	l88init
 159      E7800000 
 160              	.LVL17:
  54:main.c        ****     keyinit();                              // Initialize keyboard toolbox
 161              		.loc 1 54 5
 162 004a 97000000 		call	keyinit
 162      E7800000 
 163              	.LVL18:
  55:main.c        ****     ADC3powerUpInit(1);                     // Initialize ADC0, Ch3
 164              		.loc 1 55 5
 165 0052 0545     		li	a0,1
 166 0054 97000000 		call	ADC3powerUpInit
 166      E7800000 
 167              	.LVL19:
  56:main.c        ****     Lcd_SetType(LCD_NORMAL);                // or use LCD_INVERTED!
 168              		.loc 1 56 5
 169 005c 0145     		li	a0,0
 170 005e 97000000 		call	Lcd_SetType
 170      E7800000 
 171              	.LVL20:
  57:main.c        ****     Lcd_Init();
 172              		.loc 1 57 5
  58:main.c        ****     LCD_Clear(RED);
 173              		.loc 1 58 5 is_stmt 0
 174 0066 4169     		li	s2,65536
  57:main.c        ****     Lcd_Init();
 175              		.loc 1 57 5
 176 0068 97000000 		call	Lcd_Init
 176      E7800000 
 177              	.LVL21:
 178              		.loc 1 58 5 is_stmt 1
 179 0070 13050980 		addi	a0,s2,-2048
 180 0074 97000000 		call	LCD_Clear
 180      E7800000 
 181              	.LVL22:
  59:main.c        ****     LCD_ShowStr(10, 10, "Lab #5", WHITE, TRANSPARENT);
 182              		.loc 1 59 5
 183 007c 37060000 		lui	a2,%hi(.LC2)
 184 0080 9306F9FF 		addi	a3,s2,-1
 185 0084 0547     		li	a4,1
 186 0086 13060600 		addi	a2,a2,%lo(.LC2)
 187 008a A945     		li	a1,10
 188 008c 2945     		li	a0,10
 189 008e 97000000 		call	LCD_ShowStr
 189      E7800000 
 190              	.LVL23:
  60:main.c        ****     //rtcInit();                              // Initialize RTC
  61:main.c        ****     //rtc_counter_set(3600+60+1);
  62:main.c        ****     u0init(EI);                             // Initialize USART0 toolbox
 191              		.loc 1 62 5
 192 0096 0545     		li	a0,1
 193              	.LBB2:
  63:main.c        **** 
  64:main.c        ****     eclic_global_interrupt_enable();        // !!! INTERRUPT ENABLED !!!
  65:main.c        **** 
  66:main.c        ****     while (1) {
GAS LISTING /var/folders/p3/1m0sjft54dl35g20n661khb80000gn/T//ccm0rCo6.s 			page 6


  67:main.c        ****         idle++;                             // Manage Async events
  68:main.c        ****         LCD_WR_Queue();                     // Manage LCD com queue!
  69:main.c        ****         u0_TX_Queue();                      // Manage U(S)ART TX Queue!
  70:main.c        ****         if (adc_flag_get(ADC0,ADC_FLAG_EOC)==SET) { // ...ADC done?
 194              		.loc 1 70 13 is_stmt 0
 195 0098 37240140 		li	s0,1073815552
  71:main.c        ****           if (adc_flag_get(ADC0,ADC_FLAG_EOIC)==SET) { //...ch3 or ch16?
  72:main.c        ****             tmpr = adc_inserted_data_read(ADC0, ADC_INSERTED_CHANNEL_0);
  73:main.c        ****             //l88mem(6,((0x680-tmpr)/5)+25);
  74:main.c        ****             //usart_data_transmit(USART0, ?); // USRAT0 TX!
  75:main.c        ****             adc_flag_clear(ADC0, ADC_FLAG_EOC);
  76:main.c        ****             adc_flag_clear(ADC0, ADC_FLAG_EOIC);
  77:main.c        ****           } else {
  78:main.c        ****             adcr = adc_regular_data_read(ADC0); // ......get data
  79:main.c        ****             l88mem(4,adcr>>8);                  // ......move data
  80:main.c        ****             l88mem(5,adcr);                     // ......(view each ms)
  81:main.c        ****             adc_flag_clear(ADC0, ADC_FLAG_EOC); // ......clear IF
  82:main.c        ****           }
  83:main.c        ****         }
  84:main.c        ****         if (usart_flag_get(USART0,USART_FLAG_RBNE)){ // USART0 RX?
 196              		.loc 1 84 13
 197 009c 374B0140 		li	s6,1073823744
 198              	.LBE2:
  62:main.c        **** 
 199              		.loc 1 62 5
 200 00a0 97000000 		call	u0init
 200      E7800000 
 201              	.LVL24:
  64:main.c        **** 
 202              		.loc 1 64 5 is_stmt 1
  46:main.c        ****     int adcr, tmpr;
 203              		.loc 1 46 59 is_stmt 0
 204 00a8 A94C     		li	s9,10
  64:main.c        **** 
 205              		.loc 1 64 5
 206 00aa 97000000 		call	eclic_global_interrupt_enable
 206      E7800000 
 207              	.LVL25:
  46:main.c        ****     int adcr, tmpr;
 208              		.loc 1 46 28
 209 00b2 FD54     		li	s1,-1
  44:main.c        ****     int lookUpTbl[16]={1,4,7,14,2,5,8,0,3,6,9,15,10,11,12,13};
 210              		.loc 1 44 34
 211 00b4 814A     		li	s5,0
  44:main.c        ****     int lookUpTbl[16]={1,4,7,14,2,5,8,0,3,6,9,15,10,11,12,13};
 212              		.loc 1 44 25
 213 00b6 FD5B     		li	s7,-1
  44:main.c        ****     int lookUpTbl[16]={1,4,7,14,2,5,8,0,3,6,9,15,10,11,12,13};
 214              		.loc 1 44 15
 215 00b8 014C     		li	s8,0
  44:main.c        ****     int lookUpTbl[16]={1,4,7,14,2,5,8,0,3,6,9,15,10,11,12,13};
 216              		.loc 1 44 9
 217 00ba 014A     		li	s4,0
 218              	.LBB3:
  70:main.c        ****           if (adc_flag_get(ADC0,ADC_FLAG_EOIC)==SET) { //...ch3 or ch16?
 219              		.loc 1 70 13
 220 00bc 13040440 		addi	s0,s0,1024
GAS LISTING /var/folders/p3/1m0sjft54dl35g20n661khb80000gn/T//ccm0rCo6.s 			page 7


  70:main.c        ****           if (adc_flag_get(ADC0,ADC_FLAG_EOIC)==SET) { //...ch3 or ch16?
 221              		.loc 1 70 12
 222 00c0 054D     		li	s10,1
 223              		.loc 1 84 13
 224 00c2 130B0B80 		addi	s6,s6,-2048
  85:main.c        ****           //l88mem(6,usart_data_receive(USART0)); // Yes: Retrive & display!
  86:main.c        ****           LCD_ShowChar(position,50,usart_data_receive(USART0), OPAQUE, WHITE);
 225              		.loc 1 86 11
 226 00c6 7D19     		addi	s2,s2,-1
 227              	.LVL26:
 228              	.L12:
  87:main.c        ****         }
  88:main.c        **** 
  89:main.c        ****         if (t5expq()) {                     // Manage periodic tasks
  90:main.c        ****             l88row(colset());               // ...8*8LED and Keyboard
  91:main.c        ****             ms++;                           // ...One second heart beat
  92:main.c        ****             if (ms==1000){
  93:main.c        ****               ms=0;
  94:main.c        ****               l88mem(0,s++);
  95:main.c        ****             }
  96:main.c        ****             if ((key=keyscan())>=0) {       // ...Any key pressed?
  97:main.c        ****               if (pKey==key) c++; else {c=0; pKey=key;}
  98:main.c        ****               l88mem(1,lookUpTbl[key]+(c<<4));
  99:main.c        ****               if(firstKey == -1)            //
 100:main.c        ****               {
 101:main.c        ****                 firstKey = lookUpTbl[key];  // Lagrar första angivna tangent
 102:main.c        ****               } else if (secondKey == -1)   //
 103:main.c        ****               {
 104:main.c        ****                 secondKey = lookUpTbl[key]; // Lagrar andra tangent
 105:main.c        ****                 combineKeys = (firstKey * 16) + secondKey;  // Sätter ihop de till ett hexadecimal
 106:main.c        ****                 firstKey = -1;              // Återställer värden för att kunna gå in i IF-sat
 107:main.c        ****                 secondKey = -1;
 108:main.c        ****                 position = position + 8;    // Flytta position på skärmen
 109:main.c        ****                 putch(combineKeys);         // Skicka angivna värdet som ASCII värde till skärme
 110:main.c        ****               }
 111:main.c        ****             }
 112:main.c        ****             l88mem(2,idle>>8);              // ...Performance monitor
 113:main.c        ****             l88mem(3,idle); idle=0;
 114:main.c        ****             adc_software_trigger_enable(ADC0, //Trigger another ADC conversion!
 229              		.loc 1 114 13
 230 00c8 8149     		li	s3,0
 231              	.LVL27:
 232              	.L8:
 233              	.LBE3:
  66:main.c        ****         idle++;                             // Manage Async events
 234              		.loc 1 66 5 is_stmt 1
 235              	.LBB4:
  67:main.c        ****         LCD_WR_Queue();                     // Manage LCD com queue!
 236              		.loc 1 67 9
  68:main.c        ****         u0_TX_Queue();                      // Manage U(S)ART TX Queue!
 237              		.loc 1 68 9 is_stmt 0
 238 00ca 97000000 		call	LCD_WR_Queue
 238      E7800000 
 239              	.LVL28:
  69:main.c        ****         if (adc_flag_get(ADC0,ADC_FLAG_EOC)==SET) { // ...ADC done?
 240              		.loc 1 69 9
 241 00d2 97000000 		call	u0_TX_Queue
GAS LISTING /var/folders/p3/1m0sjft54dl35g20n661khb80000gn/T//ccm0rCo6.s 			page 8


 241      E7800000 
 242              	.LVL29:
  70:main.c        ****           if (adc_flag_get(ADC0,ADC_FLAG_EOIC)==SET) { //...ch3 or ch16?
 243              		.loc 1 70 13
 244 00da 8945     		li	a1,2
 245 00dc 2285     		mv	a0,s0
  67:main.c        ****         LCD_WR_Queue();                     // Manage LCD com queue!
 246              		.loc 1 67 13
 247 00de 8509     		addi	s3,s3,1
 248              	.LVL30:
  68:main.c        ****         u0_TX_Queue();                      // Manage U(S)ART TX Queue!
 249              		.loc 1 68 9 is_stmt 1
  69:main.c        ****         if (adc_flag_get(ADC0,ADC_FLAG_EOC)==SET) { // ...ADC done?
 250              		.loc 1 69 9
  70:main.c        ****           if (adc_flag_get(ADC0,ADC_FLAG_EOIC)==SET) { //...ch3 or ch16?
 251              		.loc 1 70 9
  70:main.c        ****           if (adc_flag_get(ADC0,ADC_FLAG_EOIC)==SET) { //...ch3 or ch16?
 252              		.loc 1 70 13 is_stmt 0
 253 00e0 97000000 		call	adc_flag_get
 253      E7800000 
 254              	.LVL31:
  70:main.c        ****           if (adc_flag_get(ADC0,ADC_FLAG_EOIC)==SET) { //...ch3 or ch16?
 255              		.loc 1 70 12
 256 00e8 631CA503 		bne	a0,s10,.L5
  71:main.c        ****             tmpr = adc_inserted_data_read(ADC0, ADC_INSERTED_CHANNEL_0);
 257              		.loc 1 71 11 is_stmt 1
  71:main.c        ****             tmpr = adc_inserted_data_read(ADC0, ADC_INSERTED_CHANNEL_0);
 258              		.loc 1 71 15 is_stmt 0
 259 00ec 9145     		li	a1,4
 260 00ee 2285     		mv	a0,s0
 261 00f0 97000000 		call	adc_flag_get
 261      E7800000 
 262              	.LVL32:
  71:main.c        ****             tmpr = adc_inserted_data_read(ADC0, ADC_INSERTED_CHANNEL_0);
 263              		.loc 1 71 14
 264 00f8 6313A511 		bne	a0,s10,.L6
  72:main.c        ****             //l88mem(6,((0x680-tmpr)/5)+25);
 265              		.loc 1 72 13 is_stmt 1
  72:main.c        ****             //l88mem(6,((0x680-tmpr)/5)+25);
 266              		.loc 1 72 20 is_stmt 0
 267 00fc 8145     		li	a1,0
 268 00fe 2285     		mv	a0,s0
 269 0100 97000000 		call	adc_inserted_data_read
 269      E7800000 
 270              	.LVL33:
  75:main.c        ****             adc_flag_clear(ADC0, ADC_FLAG_EOIC);
 271              		.loc 1 75 13 is_stmt 1
 272 0108 8945     		li	a1,2
 273 010a 2285     		mv	a0,s0
 274 010c 97000000 		call	adc_flag_clear
 274      E7800000 
 275              	.LVL34:
  76:main.c        ****           } else {
 276              		.loc 1 76 13
 277 0114 9145     		li	a1,4
 278              	.L22:
  81:main.c        ****           }
GAS LISTING /var/folders/p3/1m0sjft54dl35g20n661khb80000gn/T//ccm0rCo6.s 			page 9


 279              		.loc 1 81 13 is_stmt 0
 280 0116 2285     		mv	a0,s0
 281 0118 97000000 		call	adc_flag_clear
 281      E7800000 
 282              	.LVL35:
 283              	.L5:
  84:main.c        ****           //l88mem(6,usart_data_receive(USART0)); // Yes: Retrive & display!
 284              		.loc 1 84 9 is_stmt 1
  84:main.c        ****           //l88mem(6,usart_data_receive(USART0)); // Yes: Retrive & display!
 285              		.loc 1 84 13 is_stmt 0
 286 0120 9545     		li	a1,5
 287 0122 5A85     		mv	a0,s6
 288 0124 97000000 		call	usart_flag_get
 288      E7800000 
 289              	.LVL36:
  84:main.c        ****           //l88mem(6,usart_data_receive(USART0)); // Yes: Retrive & display!
 290              		.loc 1 84 12
 291 012c 0DC1     		beq	a0,zero,.L7
  86:main.c        ****         }
 292              		.loc 1 86 11 is_stmt 1
  86:main.c        ****         }
 293              		.loc 1 86 36 is_stmt 0
 294 012e 5A85     		mv	a0,s6
 295 0130 97000000 		call	usart_data_receive
 295      E7800000 
 296              	.LVL37:
  86:main.c        ****         }
 297              		.loc 1 86 11
 298 0138 1376F50F 		andi	a2,a0,0xff
 299 013c 4A87     		mv	a4,s2
 300 013e 8146     		li	a3,0
 301 0140 93052003 		li	a1,50
 302 0144 6685     		mv	a0,s9
 303 0146 97000000 		call	LCD_ShowChar
 303      E7800000 
 304              	.LVL38:
 305              	.L7:
  89:main.c        ****             l88row(colset());               // ...8*8LED and Keyboard
 306              		.loc 1 89 9 is_stmt 1
  89:main.c        ****             l88row(colset());               // ...8*8LED and Keyboard
 307              		.loc 1 89 13 is_stmt 0
 308 014e 97000000 		call	t5expq
 308      E7800000 
 309              	.LVL39:
  89:main.c        ****             l88row(colset());               // ...8*8LED and Keyboard
 310              		.loc 1 89 12
 311 0156 35D9     		beq	a0,zero,.L8
  90:main.c        ****             ms++;                           // ...One second heart beat
 312              		.loc 1 90 13 is_stmt 1
 313 0158 97000000 		call	colset
 313      E7800000 
 314              	.LVL40:
 315 0160 97000000 		call	l88row
 315      E7800000 
 316              	.LVL41:
  91:main.c        ****             if (ms==1000){
 317              		.loc 1 91 13
GAS LISTING /var/folders/p3/1m0sjft54dl35g20n661khb80000gn/T//ccm0rCo6.s 			page 10


  91:main.c        ****             if (ms==1000){
 318              		.loc 1 91 15 is_stmt 0
 319 0168 050A     		addi	s4,s4,1
 320              	.LVL42:
  92:main.c        ****               ms=0;
 321              		.loc 1 92 13 is_stmt 1
  92:main.c        ****               ms=0;
 322              		.loc 1 92 16 is_stmt 0
 323 016a 9307803E 		li	a5,1000
 324 016e 631CFA00 		bne	s4,a5,.L9
  93:main.c        ****               l88mem(0,s++);
 325              		.loc 1 93 15 is_stmt 1
 326              	.LVL43:
  94:main.c        ****             }
 327              		.loc 1 94 15
 328 0172 130A1C00 		addi	s4,s8,1
 329              	.LVL44:
 330 0176 E285     		mv	a1,s8
 331 0178 0145     		li	a0,0
 332 017a 528C     		mv	s8,s4
 333 017c 97000000 		call	l88mem
 333      E7800000 
 334              	.LVL45:
  93:main.c        ****               l88mem(0,s++);
 335              		.loc 1 93 17 is_stmt 0
 336 0184 014A     		li	s4,0
 337              	.LVL46:
 338              	.L9:
  96:main.c        ****               if (pKey==key) c++; else {c=0; pKey=key;}
 339              		.loc 1 96 13 is_stmt 1
  96:main.c        ****               if (pKey==key) c++; else {c=0; pKey=key;}
 340              		.loc 1 96 22 is_stmt 0
 341 0186 97000000 		call	keyscan
 341      E7800000 
 342              	.LVL47:
 343 018e AA8D     		mv	s11,a0
 344              	.LVL48:
  96:main.c        ****               if (pKey==key) c++; else {c=0; pKey=key;}
 345              		.loc 1 96 16
 346 0190 634C0508 		blt	a0,zero,.L13
  97:main.c        ****               l88mem(1,lookUpTbl[key]+(c<<4));
 347              		.loc 1 97 15 is_stmt 1
  97:main.c        ****               l88mem(1,lookUpTbl[key]+(c<<4));
 348              		.loc 1 97 31 is_stmt 0
 349 0194 850A     		addi	s5,s5,1
 350              	.LVL49:
  97:main.c        ****               l88mem(1,lookUpTbl[key]+(c<<4));
 351              		.loc 1 97 18
 352 0196 63037501 		beq	a0,s7,.L11
  97:main.c        ****               l88mem(1,lookUpTbl[key]+(c<<4));
 353              		.loc 1 97 42
 354 019a 814A     		li	s5,0
 355              	.LVL50:
 356              	.L11:
  98:main.c        ****               if(firstKey == -1)            //
 357              		.loc 1 98 15 is_stmt 1
  98:main.c        ****               if(firstKey == -1)            //
GAS LISTING /var/folders/p3/1m0sjft54dl35g20n661khb80000gn/T//ccm0rCo6.s 			page 11


 358              		.loc 1 98 33 is_stmt 0
 359 019c 9C00     		addi	a5,sp,64
 360 019e 13972D00 		slli	a4,s11,2
 361 01a2 3E97     		add	a4,a5,a4
 362 01a4 832B07FC 		lw	s7,-64(a4)
  98:main.c        ****               if(firstKey == -1)            //
 363              		.loc 1 98 41
 364 01a8 93954A00 		slli	a1,s5,4
  98:main.c        ****               if(firstKey == -1)            //
 365              		.loc 1 98 15
 366 01ac 0545     		li	a0,1
 367              	.LVL51:
 368 01ae DE95     		add	a1,a1,s7
 369 01b0 97000000 		call	l88mem
 369      E7800000 
 370              	.LVL52:
  99:main.c        ****               {
 371              		.loc 1 99 15 is_stmt 1
  99:main.c        ****               {
 372              		.loc 1 99 17 is_stmt 0
 373 01b8 FD57     		li	a5,-1
 374 01ba 6389F406 		beq	s1,a5,.L15
 102:main.c        ****               {
 375              		.loc 1 102 22 is_stmt 1
 104:main.c        ****                 combineKeys = (firstKey * 16) + secondKey;  // Sätter ihop de till ett hexadecimal
 376              		.loc 1 104 17
 377              	.LVL53:
 105:main.c        ****                 firstKey = -1;              // Återställer värden för att kunna gå in i IF-sat
 378              		.loc 1 105 17
 106:main.c        ****                 secondKey = -1;
 379              		.loc 1 106 17
 107:main.c        ****                 position = position + 8;    // Flytta position på skärmen
 380              		.loc 1 107 17
 108:main.c        ****                 putch(combineKeys);         // Skicka angivna värdet som ASCII värde till skärme
 381              		.loc 1 108 17
 105:main.c        ****                 firstKey = -1;              // Återställer värden för att kunna gå in i IF-sat
 382              		.loc 1 105 41 is_stmt 0
 383 01be 13954400 		slli	a0,s1,4
 105:main.c        ****                 firstKey = -1;              // Återställer värden för att kunna gå in i IF-sat
 384              		.loc 1 105 29
 385 01c2 5E95     		add	a0,a0,s7
 386              	.LVL54:
 109:main.c        ****               }
 387              		.loc 1 109 17
 388 01c4 1375F50F 		andi	a0,a0,0xff
 389              	.LVL55:
 108:main.c        ****                 putch(combineKeys);         // Skicka angivna värdet som ASCII värde till skärme
 390              		.loc 1 108 26
 391 01c8 A10C     		addi	s9,s9,8
 392              	.LVL56:
 109:main.c        ****               }
 393              		.loc 1 109 17 is_stmt 1
 394 01ca 97000000 		call	putch
 394      E7800000 
 395              	.LVL57:
 106:main.c        ****                 secondKey = -1;
 396              		.loc 1 106 26 is_stmt 0
GAS LISTING /var/folders/p3/1m0sjft54dl35g20n661khb80000gn/T//ccm0rCo6.s 			page 12


 397 01d2 FD54     		li	s1,-1
 398              	.LVL58:
 399              	.L10:
 112:main.c        ****             l88mem(3,idle); idle=0;
 400              		.loc 1 112 13 is_stmt 1
 401 01d4 93D58940 		srai	a1,s3,8
 402 01d8 0945     		li	a0,2
 403 01da 97000000 		call	l88mem
 403      E7800000 
 404              	.LVL59:
 113:main.c        ****             adc_software_trigger_enable(ADC0, //Trigger another ADC conversion!
 405              		.loc 1 113 13
 406 01e2 CE85     		mv	a1,s3
 407 01e4 0D45     		li	a0,3
 408 01e6 97000000 		call	l88mem
 408      E7800000 
 409              	.LVL60:
 113:main.c        ****             adc_software_trigger_enable(ADC0, //Trigger another ADC conversion!
 410              		.loc 1 113 29
 411              		.loc 1 114 13
 412 01ee 8545     		li	a1,1
 413 01f0 2285     		mv	a0,s0
 414 01f2 97000000 		call	adc_software_trigger_enable
 414      E7800000 
 415              	.LVL61:
 416 01fa EE8B     		mv	s7,s11
 417 01fc F1B5     		j	.L12
 418              	.LVL62:
 419              	.L6:
  78:main.c        ****             l88mem(4,adcr>>8);                  // ......move data
 420              		.loc 1 78 13
  78:main.c        ****             l88mem(4,adcr>>8);                  // ......move data
 421              		.loc 1 78 20 is_stmt 0
 422 01fe 2285     		mv	a0,s0
 423 0200 97000000 		call	adc_regular_data_read
 423      E7800000 
 424              	.LVL63:
  79:main.c        ****             l88mem(5,adcr);                     // ......(view each ms)
 425              		.loc 1 79 13
 426 0208 93558540 		srai	a1,a0,8
  78:main.c        ****             l88mem(4,adcr>>8);                  // ......move data
 427              		.loc 1 78 20
 428 020c AA8D     		mv	s11,a0
 429              	.LVL64:
  79:main.c        ****             l88mem(5,adcr);                     // ......(view each ms)
 430              		.loc 1 79 13 is_stmt 1
 431 020e 1145     		li	a0,4
 432              	.LVL65:
 433 0210 97000000 		call	l88mem
 433      E7800000 
 434              	.LVL66:
  80:main.c        ****             adc_flag_clear(ADC0, ADC_FLAG_EOC); // ......clear IF
 435              		.loc 1 80 13
 436 0218 EE85     		mv	a1,s11
 437 021a 1545     		li	a0,5
 438 021c 97000000 		call	l88mem
 438      E7800000 
GAS LISTING /var/folders/p3/1m0sjft54dl35g20n661khb80000gn/T//ccm0rCo6.s 			page 13


 439              	.LVL67:
  81:main.c        ****           }
 440              		.loc 1 81 13
 441 0224 8945     		li	a1,2
 442 0226 C5BD     		j	.L22
 443              	.LVL68:
 444              	.L13:
 445 0228 DE8D     		mv	s11,s7
 446 022a 6DB7     		j	.L10
 447              	.LVL69:
 448              	.L15:
 101:main.c        ****               } else if (secondKey == -1)   //
 449              		.loc 1 101 26 is_stmt 0
 450 022c DE84     		mv	s1,s7
 451              	.LVL70:
 452 022e 5DB7     		j	.L10
 453              	.LBE4:
 454              		.cfi_endproc
 455              	.LFE3:
 457              		.section	.rodata
 458              		.align	2
 459              		.set	.LANCHOR0,. + 0
 460              	.LC0:
 461 0000 01000000 		.word	1
 462 0004 04000000 		.word	4
 463 0008 07000000 		.word	7
 464 000c 0E000000 		.word	14
 465 0010 02000000 		.word	2
 466 0014 05000000 		.word	5
 467 0018 08000000 		.word	8
 468 001c 00000000 		.word	0
 469 0020 03000000 		.word	3
 470 0024 06000000 		.word	6
 471 0028 09000000 		.word	9
 472 002c 0F000000 		.word	15
 473 0030 0A000000 		.word	10
 474 0034 0B000000 		.word	11
 475 0038 0C000000 		.word	12
 476 003c 0D000000 		.word	13
 477              		.section	.rodata.main.str1.4,"aMS",@progbits,1
 478              		.align	2
 479              	.LC2:
 480 0000 4C616220 		.string	"Lab #5"
 480      233500
 481              		.text
 482              	.Letext0:
 483              		.file 2 "/Users/tyrone/Desktop/toolchain-gd32v/toolchain-gd32v-v202-osx/compiler/riscv64-unknown-e
 484              		.file 3 "/Users/tyrone/Desktop/toolchain-gd32v/toolchain-gd32v-v202-osx/compiler/riscv64-unknown-e
 485              		.file 4 "../../firmware/GD32VF103_standard_peripheral/gd32vf103.h"
 486              		.file 5 "../../firmware/GD32VF103_standard_peripheral/Include/gd32vf103_rcu.h"
 487              		.file 6 "../../firmware/GD32VF103_standard_peripheral/Include/gd32vf103_usart.h"
 488              		.file 7 "/Users/tyrone/Desktop/toolchain-gd32v/toolchain-gd32v-v202-osx/compiler/lib/gcc/riscv64-u
 489              		.file 8 "/Users/tyrone/Desktop/toolchain-gd32v/toolchain-gd32v-v202-osx/compiler/riscv64-unknown-e
 490              		.file 9 "/Users/tyrone/Desktop/toolchain-gd32v/toolchain-gd32v-v202-osx/compiler/riscv64-unknown-e
 491              		.file 10 "/Users/tyrone/Desktop/toolchain-gd32v/toolchain-gd32v-v202-osx/compiler/riscv64-unknown-
 492              		.file 11 "../../firmware/GD32VF103_standard_peripheral/system_gd32vf103.h"
 493              		.file 12 "/Users/tyrone/Desktop/toolchain-gd32v/toolchain-gd32v-v202-osx/compiler/riscv64-unknown-
GAS LISTING /var/folders/p3/1m0sjft54dl35g20n661khb80000gn/T//ccm0rCo6.s 			page 14


 494              		.file 13 "lcd.h"
 495              		.file 14 "../../firmware/GD32VF103_standard_peripheral/Include/gd32vf103_adc.h"
 496              		.file 15 "drivers.h"
 497              		.file 16 "usart.h"
 498              		.file 17 "adc.h"
 499              		.file 18 "../../firmware/GD32VF103_standard_peripheral/Include/gd32vf103_eclic.h"
 500              		.file 19 "../../firmware/GD32VF103_standard_peripheral/Include/gd32vf103_pmu.h"
 501              		.file 20 "../../firmware/GD32VF103_standard_peripheral/Include/gd32vf103_bkp.h"
 502              		.file 21 "../../firmware/GD32VF103_standard_peripheral/Include/gd32vf103_rtc.h"
 503              		.file 22 "<built-in>"
GAS LISTING /var/folders/p3/1m0sjft54dl35g20n661khb80000gn/T//ccm0rCo6.s 			page 15


DEFINED SYMBOLS
                            *ABS*:0000000000000000 main.c
/var/folders/p3/1m0sjft54dl35g20n661khb80000gn/T//ccm0rCo6.s:13     .text.rtcInit:0000000000000000 rtcInit
/var/folders/p3/1m0sjft54dl35g20n661khb80000gn/T//ccm0rCo6.s:17     .text.rtcInit:0000000000000000 .L0 
/var/folders/p3/1m0sjft54dl35g20n661khb80000gn/T//ccm0rCo6.s:18     .text.rtcInit:0000000000000000 .L0 
/var/folders/p3/1m0sjft54dl35g20n661khb80000gn/T//ccm0rCo6.s:19     .text.rtcInit:0000000000000000 .L0 
/var/folders/p3/1m0sjft54dl35g20n661khb80000gn/T//ccm0rCo6.s:20     .text.rtcInit:0000000000000000 .L0 
/var/folders/p3/1m0sjft54dl35g20n661khb80000gn/T//ccm0rCo6.s:22     .text.rtcInit:0000000000000002 .L0 
/var/folders/p3/1m0sjft54dl35g20n661khb80000gn/T//ccm0rCo6.s:24     .text.rtcInit:0000000000000002 .L0 
/var/folders/p3/1m0sjft54dl35g20n661khb80000gn/T//ccm0rCo6.s:26     .text.rtcInit:0000000000000006 .L0 
/var/folders/p3/1m0sjft54dl35g20n661khb80000gn/T//ccm0rCo6.s:27     .text.rtcInit:0000000000000008 .L0 
/var/folders/p3/1m0sjft54dl35g20n661khb80000gn/T//ccm0rCo6.s:29     .text.rtcInit:0000000000000008 .L0 
/var/folders/p3/1m0sjft54dl35g20n661khb80000gn/T//ccm0rCo6.s:32     .text.rtcInit:0000000000000010 .L0 
/var/folders/p3/1m0sjft54dl35g20n661khb80000gn/T//ccm0rCo6.s:35     .text.rtcInit:0000000000000018 .L0 
/var/folders/p3/1m0sjft54dl35g20n661khb80000gn/T//ccm0rCo6.s:39     .text.rtcInit:0000000000000024 .L0 
/var/folders/p3/1m0sjft54dl35g20n661khb80000gn/T//ccm0rCo6.s:42     .text.rtcInit:000000000000002c .L0 
/var/folders/p3/1m0sjft54dl35g20n661khb80000gn/T//ccm0rCo6.s:43     .text.rtcInit:000000000000002c .L0 
/var/folders/p3/1m0sjft54dl35g20n661khb80000gn/T//ccm0rCo6.s:47     .text.rtcInit:0000000000000036 .L0 
/var/folders/p3/1m0sjft54dl35g20n661khb80000gn/T//ccm0rCo6.s:49     .text.rtcInit:0000000000000038 .L0 
/var/folders/p3/1m0sjft54dl35g20n661khb80000gn/T//ccm0rCo6.s:53     .text.rtcInit:0000000000000044 .L0 
/var/folders/p3/1m0sjft54dl35g20n661khb80000gn/T//ccm0rCo6.s:58     .text.rtcInit:0000000000000052 .L0 
/var/folders/p3/1m0sjft54dl35g20n661khb80000gn/T//ccm0rCo6.s:61     .text.rtcInit:000000000000005a .L0 
/var/folders/p3/1m0sjft54dl35g20n661khb80000gn/T//ccm0rCo6.s:64     .text.rtcInit:0000000000000062 .L0 
/var/folders/p3/1m0sjft54dl35g20n661khb80000gn/T//ccm0rCo6.s:69     .text.rtcInit:0000000000000070 .L0 
/var/folders/p3/1m0sjft54dl35g20n661khb80000gn/T//ccm0rCo6.s:72     .text.rtcInit:0000000000000078 .L0 
/var/folders/p3/1m0sjft54dl35g20n661khb80000gn/T//ccm0rCo6.s:76     .text.rtcInit:0000000000000082 .L0 
/var/folders/p3/1m0sjft54dl35g20n661khb80000gn/T//ccm0rCo6.s:77     .text.rtcInit:0000000000000082 .L0 
/var/folders/p3/1m0sjft54dl35g20n661khb80000gn/T//ccm0rCo6.s:78     .text.rtcInit:0000000000000084 .L0 
/var/folders/p3/1m0sjft54dl35g20n661khb80000gn/T//ccm0rCo6.s:79     .text.rtcInit:0000000000000084 .L0 
/var/folders/p3/1m0sjft54dl35g20n661khb80000gn/T//ccm0rCo6.s:82     .text.rtcInit:0000000000000086 .L0 
/var/folders/p3/1m0sjft54dl35g20n661khb80000gn/T//ccm0rCo6.s:84     .text.rtcInit:0000000000000086 .L0 
/var/folders/p3/1m0sjft54dl35g20n661khb80000gn/T//ccm0rCo6.s:88     .text.rtcInit:000000000000008e .L0 
/var/folders/p3/1m0sjft54dl35g20n661khb80000gn/T//ccm0rCo6.s:90     .text.rtcInit:000000000000008e .L0 
/var/folders/p3/1m0sjft54dl35g20n661khb80000gn/T//ccm0rCo6.s:91     .text.rtcInit:0000000000000090 .L0 
/var/folders/p3/1m0sjft54dl35g20n661khb80000gn/T//ccm0rCo6.s:94     .text.rtcInit:0000000000000092 .L0 
/var/folders/p3/1m0sjft54dl35g20n661khb80000gn/T//ccm0rCo6.s:96     .text.rtcInit:0000000000000094 .L0 
/var/folders/p3/1m0sjft54dl35g20n661khb80000gn/T//ccm0rCo6.s:103    .text.startup.main:0000000000000000 main
/var/folders/p3/1m0sjft54dl35g20n661khb80000gn/T//ccm0rCo6.s:106    .text.startup.main:0000000000000000 .L0 
/var/folders/p3/1m0sjft54dl35g20n661khb80000gn/T//ccm0rCo6.s:107    .text.startup.main:0000000000000000 .L0 
/var/folders/p3/1m0sjft54dl35g20n661khb80000gn/T//ccm0rCo6.s:109    .text.startup.main:0000000000000000 .L0 
/var/folders/p3/1m0sjft54dl35g20n661khb80000gn/T//ccm0rCo6.s:110    .text.startup.main:0000000000000000 .L0 
/var/folders/p3/1m0sjft54dl35g20n661khb80000gn/T//ccm0rCo6.s:111    .text.startup.main:0000000000000000 .L0 
/var/folders/p3/1m0sjft54dl35g20n661khb80000gn/T//ccm0rCo6.s:113    .text.startup.main:0000000000000002 .L0 
/var/folders/p3/1m0sjft54dl35g20n661khb80000gn/T//ccm0rCo6.s:115    .text.startup.main:0000000000000002 .L0 
/var/folders/p3/1m0sjft54dl35g20n661khb80000gn/T//ccm0rCo6.s:120    .text.startup.main:0000000000000010 .L0 
/var/folders/p3/1m0sjft54dl35g20n661khb80000gn/T//ccm0rCo6.s:133    .text.startup.main:000000000000002a .L0 
/var/folders/p3/1m0sjft54dl35g20n661khb80000gn/T//ccm0rCo6.s:134    .text.startup.main:000000000000002a .L0 
/var/folders/p3/1m0sjft54dl35g20n661khb80000gn/T//ccm0rCo6.s:135    .text.startup.main:000000000000002a .L0 
/var/folders/p3/1m0sjft54dl35g20n661khb80000gn/T//ccm0rCo6.s:136    .text.startup.main:000000000000002a .L0 
/var/folders/p3/1m0sjft54dl35g20n661khb80000gn/T//ccm0rCo6.s:137    .text.startup.main:000000000000002a .L0 
/var/folders/p3/1m0sjft54dl35g20n661khb80000gn/T//ccm0rCo6.s:138    .text.startup.main:000000000000002a .L0 
/var/folders/p3/1m0sjft54dl35g20n661khb80000gn/T//ccm0rCo6.s:139    .text.startup.main:000000000000002a .L0 
/var/folders/p3/1m0sjft54dl35g20n661khb80000gn/T//ccm0rCo6.s:140    .text.startup.main:000000000000002a .L0 
/var/folders/p3/1m0sjft54dl35g20n661khb80000gn/T//ccm0rCo6.s:141    .text.startup.main:000000000000002a .L0 
/var/folders/p3/1m0sjft54dl35g20n661khb80000gn/T//ccm0rCo6.s:142    .text.startup.main:000000000000002a .L0 
/var/folders/p3/1m0sjft54dl35g20n661khb80000gn/T//ccm0rCo6.s:143    .text.startup.main:000000000000002a .L0 
/var/folders/p3/1m0sjft54dl35g20n661khb80000gn/T//ccm0rCo6.s:144    .text.startup.main:000000000000002a .L0 
GAS LISTING /var/folders/p3/1m0sjft54dl35g20n661khb80000gn/T//ccm0rCo6.s 			page 16


/var/folders/p3/1m0sjft54dl35g20n661khb80000gn/T//ccm0rCo6.s:145    .text.startup.main:000000000000002a .L0 
/var/folders/p3/1m0sjft54dl35g20n661khb80000gn/T//ccm0rCo6.s:147    .text.startup.main:000000000000002a .L0 
/var/folders/p3/1m0sjft54dl35g20n661khb80000gn/T//ccm0rCo6.s:150    .text.startup.main:0000000000000032 .L0 
/var/folders/p3/1m0sjft54dl35g20n661khb80000gn/T//ccm0rCo6.s:151    .text.startup.main:0000000000000032 .L0 
/var/folders/p3/1m0sjft54dl35g20n661khb80000gn/T//ccm0rCo6.s:152    .text.startup.main:0000000000000032 .L0 
/var/folders/p3/1m0sjft54dl35g20n661khb80000gn/T//ccm0rCo6.s:153    .text.startup.main:0000000000000032 .L0 
/var/folders/p3/1m0sjft54dl35g20n661khb80000gn/T//ccm0rCo6.s:156    .text.startup.main:000000000000003a .L0 
/var/folders/p3/1m0sjft54dl35g20n661khb80000gn/T//ccm0rCo6.s:159    .text.startup.main:0000000000000042 .L0 
/var/folders/p3/1m0sjft54dl35g20n661khb80000gn/T//ccm0rCo6.s:162    .text.startup.main:000000000000004a .L0 
/var/folders/p3/1m0sjft54dl35g20n661khb80000gn/T//ccm0rCo6.s:165    .text.startup.main:0000000000000052 .L0 
/var/folders/p3/1m0sjft54dl35g20n661khb80000gn/T//ccm0rCo6.s:169    .text.startup.main:000000000000005c .L0 
/var/folders/p3/1m0sjft54dl35g20n661khb80000gn/T//ccm0rCo6.s:173    .text.startup.main:0000000000000066 .L0 
/var/folders/p3/1m0sjft54dl35g20n661khb80000gn/T//ccm0rCo6.s:174    .text.startup.main:0000000000000066 .L0 
/var/folders/p3/1m0sjft54dl35g20n661khb80000gn/T//ccm0rCo6.s:176    .text.startup.main:0000000000000068 .L0 
/var/folders/p3/1m0sjft54dl35g20n661khb80000gn/T//ccm0rCo6.s:179    .text.startup.main:0000000000000070 .L0 
/var/folders/p3/1m0sjft54dl35g20n661khb80000gn/T//ccm0rCo6.s:183    .text.startup.main:000000000000007c .L0 
/var/folders/p3/1m0sjft54dl35g20n661khb80000gn/T//ccm0rCo6.s:192    .text.startup.main:0000000000000096 .L0 
/var/folders/p3/1m0sjft54dl35g20n661khb80000gn/T//ccm0rCo6.s:195    .text.startup.main:0000000000000098 .L0 
/var/folders/p3/1m0sjft54dl35g20n661khb80000gn/T//ccm0rCo6.s:197    .text.startup.main:000000000000009c .L0 
/var/folders/p3/1m0sjft54dl35g20n661khb80000gn/T//ccm0rCo6.s:200    .text.startup.main:00000000000000a0 .L0 
/var/folders/p3/1m0sjft54dl35g20n661khb80000gn/T//ccm0rCo6.s:203    .text.startup.main:00000000000000a8 .L0 
/var/folders/p3/1m0sjft54dl35g20n661khb80000gn/T//ccm0rCo6.s:204    .text.startup.main:00000000000000a8 .L0 
/var/folders/p3/1m0sjft54dl35g20n661khb80000gn/T//ccm0rCo6.s:206    .text.startup.main:00000000000000aa .L0 
/var/folders/p3/1m0sjft54dl35g20n661khb80000gn/T//ccm0rCo6.s:209    .text.startup.main:00000000000000b2 .L0 
/var/folders/p3/1m0sjft54dl35g20n661khb80000gn/T//ccm0rCo6.s:211    .text.startup.main:00000000000000b4 .L0 
/var/folders/p3/1m0sjft54dl35g20n661khb80000gn/T//ccm0rCo6.s:213    .text.startup.main:00000000000000b6 .L0 
/var/folders/p3/1m0sjft54dl35g20n661khb80000gn/T//ccm0rCo6.s:215    .text.startup.main:00000000000000b8 .L0 
/var/folders/p3/1m0sjft54dl35g20n661khb80000gn/T//ccm0rCo6.s:217    .text.startup.main:00000000000000ba .L0 
/var/folders/p3/1m0sjft54dl35g20n661khb80000gn/T//ccm0rCo6.s:220    .text.startup.main:00000000000000bc .L0 
/var/folders/p3/1m0sjft54dl35g20n661khb80000gn/T//ccm0rCo6.s:222    .text.startup.main:00000000000000c0 .L0 
/var/folders/p3/1m0sjft54dl35g20n661khb80000gn/T//ccm0rCo6.s:224    .text.startup.main:00000000000000c2 .L0 
/var/folders/p3/1m0sjft54dl35g20n661khb80000gn/T//ccm0rCo6.s:226    .text.startup.main:00000000000000c6 .L0 
/var/folders/p3/1m0sjft54dl35g20n661khb80000gn/T//ccm0rCo6.s:230    .text.startup.main:00000000000000c8 .L0 
/var/folders/p3/1m0sjft54dl35g20n661khb80000gn/T//ccm0rCo6.s:236    .text.startup.main:00000000000000ca .L0 
/var/folders/p3/1m0sjft54dl35g20n661khb80000gn/T//ccm0rCo6.s:237    .text.startup.main:00000000000000ca .L0 
/var/folders/p3/1m0sjft54dl35g20n661khb80000gn/T//ccm0rCo6.s:238    .text.startup.main:00000000000000ca .L0 
/var/folders/p3/1m0sjft54dl35g20n661khb80000gn/T//ccm0rCo6.s:241    .text.startup.main:00000000000000d2 .L0 
/var/folders/p3/1m0sjft54dl35g20n661khb80000gn/T//ccm0rCo6.s:244    .text.startup.main:00000000000000da .L0 
/var/folders/p3/1m0sjft54dl35g20n661khb80000gn/T//ccm0rCo6.s:247    .text.startup.main:00000000000000de .L0 
/var/folders/p3/1m0sjft54dl35g20n661khb80000gn/T//ccm0rCo6.s:250    .text.startup.main:00000000000000e0 .L0 
/var/folders/p3/1m0sjft54dl35g20n661khb80000gn/T//ccm0rCo6.s:251    .text.startup.main:00000000000000e0 .L0 
/var/folders/p3/1m0sjft54dl35g20n661khb80000gn/T//ccm0rCo6.s:252    .text.startup.main:00000000000000e0 .L0 
/var/folders/p3/1m0sjft54dl35g20n661khb80000gn/T//ccm0rCo6.s:253    .text.startup.main:00000000000000e0 .L0 
/var/folders/p3/1m0sjft54dl35g20n661khb80000gn/T//ccm0rCo6.s:256    .text.startup.main:00000000000000e8 .L0 
/var/folders/p3/1m0sjft54dl35g20n661khb80000gn/T//ccm0rCo6.s:258    .text.startup.main:00000000000000ec .L0 
/var/folders/p3/1m0sjft54dl35g20n661khb80000gn/T//ccm0rCo6.s:259    .text.startup.main:00000000000000ec .L0 
/var/folders/p3/1m0sjft54dl35g20n661khb80000gn/T//ccm0rCo6.s:264    .text.startup.main:00000000000000f8 .L0 
/var/folders/p3/1m0sjft54dl35g20n661khb80000gn/T//ccm0rCo6.s:266    .text.startup.main:00000000000000fc .L0 
/var/folders/p3/1m0sjft54dl35g20n661khb80000gn/T//ccm0rCo6.s:267    .text.startup.main:00000000000000fc .L0 
/var/folders/p3/1m0sjft54dl35g20n661khb80000gn/T//ccm0rCo6.s:272    .text.startup.main:0000000000000108 .L0 
/var/folders/p3/1m0sjft54dl35g20n661khb80000gn/T//ccm0rCo6.s:277    .text.startup.main:0000000000000114 .L0 
/var/folders/p3/1m0sjft54dl35g20n661khb80000gn/T//ccm0rCo6.s:280    .text.startup.main:0000000000000116 .L0 
/var/folders/p3/1m0sjft54dl35g20n661khb80000gn/T//ccm0rCo6.s:285    .text.startup.main:0000000000000120 .L0 
/var/folders/p3/1m0sjft54dl35g20n661khb80000gn/T//ccm0rCo6.s:286    .text.startup.main:0000000000000120 .L0 
/var/folders/p3/1m0sjft54dl35g20n661khb80000gn/T//ccm0rCo6.s:291    .text.startup.main:000000000000012c .L0 
/var/folders/p3/1m0sjft54dl35g20n661khb80000gn/T//ccm0rCo6.s:293    .text.startup.main:000000000000012e .L0 
/var/folders/p3/1m0sjft54dl35g20n661khb80000gn/T//ccm0rCo6.s:294    .text.startup.main:000000000000012e .L0 
GAS LISTING /var/folders/p3/1m0sjft54dl35g20n661khb80000gn/T//ccm0rCo6.s 			page 17


/var/folders/p3/1m0sjft54dl35g20n661khb80000gn/T//ccm0rCo6.s:298    .text.startup.main:0000000000000138 .L0 
/var/folders/p3/1m0sjft54dl35g20n661khb80000gn/T//ccm0rCo6.s:307    .text.startup.main:000000000000014e .L0 
/var/folders/p3/1m0sjft54dl35g20n661khb80000gn/T//ccm0rCo6.s:308    .text.startup.main:000000000000014e .L0 
/var/folders/p3/1m0sjft54dl35g20n661khb80000gn/T//ccm0rCo6.s:311    .text.startup.main:0000000000000156 .L0 
/var/folders/p3/1m0sjft54dl35g20n661khb80000gn/T//ccm0rCo6.s:313    .text.startup.main:0000000000000158 .L0 
/var/folders/p3/1m0sjft54dl35g20n661khb80000gn/T//ccm0rCo6.s:318    .text.startup.main:0000000000000168 .L0 
/var/folders/p3/1m0sjft54dl35g20n661khb80000gn/T//ccm0rCo6.s:319    .text.startup.main:0000000000000168 .L0 
/var/folders/p3/1m0sjft54dl35g20n661khb80000gn/T//ccm0rCo6.s:322    .text.startup.main:000000000000016a .L0 
/var/folders/p3/1m0sjft54dl35g20n661khb80000gn/T//ccm0rCo6.s:323    .text.startup.main:000000000000016a .L0 
/var/folders/p3/1m0sjft54dl35g20n661khb80000gn/T//ccm0rCo6.s:327    .text.startup.main:0000000000000172 .L0 
/var/folders/p3/1m0sjft54dl35g20n661khb80000gn/T//ccm0rCo6.s:328    .text.startup.main:0000000000000172 .L0 
/var/folders/p3/1m0sjft54dl35g20n661khb80000gn/T//ccm0rCo6.s:336    .text.startup.main:0000000000000184 .L0 
/var/folders/p3/1m0sjft54dl35g20n661khb80000gn/T//ccm0rCo6.s:340    .text.startup.main:0000000000000186 .L0 
/var/folders/p3/1m0sjft54dl35g20n661khb80000gn/T//ccm0rCo6.s:341    .text.startup.main:0000000000000186 .L0 
/var/folders/p3/1m0sjft54dl35g20n661khb80000gn/T//ccm0rCo6.s:346    .text.startup.main:0000000000000190 .L0 
/var/folders/p3/1m0sjft54dl35g20n661khb80000gn/T//ccm0rCo6.s:348    .text.startup.main:0000000000000194 .L0 
/var/folders/p3/1m0sjft54dl35g20n661khb80000gn/T//ccm0rCo6.s:349    .text.startup.main:0000000000000194 .L0 
/var/folders/p3/1m0sjft54dl35g20n661khb80000gn/T//ccm0rCo6.s:352    .text.startup.main:0000000000000196 .L0 
/var/folders/p3/1m0sjft54dl35g20n661khb80000gn/T//ccm0rCo6.s:354    .text.startup.main:000000000000019a .L0 
/var/folders/p3/1m0sjft54dl35g20n661khb80000gn/T//ccm0rCo6.s:358    .text.startup.main:000000000000019c .L0 
/var/folders/p3/1m0sjft54dl35g20n661khb80000gn/T//ccm0rCo6.s:359    .text.startup.main:000000000000019c .L0 
/var/folders/p3/1m0sjft54dl35g20n661khb80000gn/T//ccm0rCo6.s:364    .text.startup.main:00000000000001a8 .L0 
/var/folders/p3/1m0sjft54dl35g20n661khb80000gn/T//ccm0rCo6.s:366    .text.startup.main:00000000000001ac .L0 
/var/folders/p3/1m0sjft54dl35g20n661khb80000gn/T//ccm0rCo6.s:372    .text.startup.main:00000000000001b8 .L0 
/var/folders/p3/1m0sjft54dl35g20n661khb80000gn/T//ccm0rCo6.s:373    .text.startup.main:00000000000001b8 .L0 
/var/folders/p3/1m0sjft54dl35g20n661khb80000gn/T//ccm0rCo6.s:376    .text.startup.main:00000000000001be .L0 
/var/folders/p3/1m0sjft54dl35g20n661khb80000gn/T//ccm0rCo6.s:378    .text.startup.main:00000000000001be .L0 
/var/folders/p3/1m0sjft54dl35g20n661khb80000gn/T//ccm0rCo6.s:379    .text.startup.main:00000000000001be .L0 
/var/folders/p3/1m0sjft54dl35g20n661khb80000gn/T//ccm0rCo6.s:380    .text.startup.main:00000000000001be .L0 
/var/folders/p3/1m0sjft54dl35g20n661khb80000gn/T//ccm0rCo6.s:381    .text.startup.main:00000000000001be .L0 
/var/folders/p3/1m0sjft54dl35g20n661khb80000gn/T//ccm0rCo6.s:382    .text.startup.main:00000000000001be .L0 
/var/folders/p3/1m0sjft54dl35g20n661khb80000gn/T//ccm0rCo6.s:383    .text.startup.main:00000000000001be .L0 
/var/folders/p3/1m0sjft54dl35g20n661khb80000gn/T//ccm0rCo6.s:385    .text.startup.main:00000000000001c2 .L0 
/var/folders/p3/1m0sjft54dl35g20n661khb80000gn/T//ccm0rCo6.s:388    .text.startup.main:00000000000001c4 .L0 
/var/folders/p3/1m0sjft54dl35g20n661khb80000gn/T//ccm0rCo6.s:391    .text.startup.main:00000000000001c8 .L0 
/var/folders/p3/1m0sjft54dl35g20n661khb80000gn/T//ccm0rCo6.s:394    .text.startup.main:00000000000001ca .L0 
/var/folders/p3/1m0sjft54dl35g20n661khb80000gn/T//ccm0rCo6.s:397    .text.startup.main:00000000000001d2 .L0 
/var/folders/p3/1m0sjft54dl35g20n661khb80000gn/T//ccm0rCo6.s:401    .text.startup.main:00000000000001d4 .L0 
/var/folders/p3/1m0sjft54dl35g20n661khb80000gn/T//ccm0rCo6.s:406    .text.startup.main:00000000000001e2 .L0 
/var/folders/p3/1m0sjft54dl35g20n661khb80000gn/T//ccm0rCo6.s:411    .text.startup.main:00000000000001ee .L0 
/var/folders/p3/1m0sjft54dl35g20n661khb80000gn/T//ccm0rCo6.s:412    .text.startup.main:00000000000001ee .L0 
/var/folders/p3/1m0sjft54dl35g20n661khb80000gn/T//ccm0rCo6.s:421    .text.startup.main:00000000000001fe .L0 
/var/folders/p3/1m0sjft54dl35g20n661khb80000gn/T//ccm0rCo6.s:422    .text.startup.main:00000000000001fe .L0 
/var/folders/p3/1m0sjft54dl35g20n661khb80000gn/T//ccm0rCo6.s:426    .text.startup.main:0000000000000208 .L0 
/var/folders/p3/1m0sjft54dl35g20n661khb80000gn/T//ccm0rCo6.s:428    .text.startup.main:000000000000020c .L0 
/var/folders/p3/1m0sjft54dl35g20n661khb80000gn/T//ccm0rCo6.s:431    .text.startup.main:000000000000020e .L0 
/var/folders/p3/1m0sjft54dl35g20n661khb80000gn/T//ccm0rCo6.s:436    .text.startup.main:0000000000000218 .L0 
/var/folders/p3/1m0sjft54dl35g20n661khb80000gn/T//ccm0rCo6.s:441    .text.startup.main:0000000000000224 .L0 
/var/folders/p3/1m0sjft54dl35g20n661khb80000gn/T//ccm0rCo6.s:450    .text.startup.main:000000000000022c .L0 
/var/folders/p3/1m0sjft54dl35g20n661khb80000gn/T//ccm0rCo6.s:454    .text.startup.main:0000000000000230 .L0 
/var/folders/p3/1m0sjft54dl35g20n661khb80000gn/T//ccm0rCo6.s:459    .rodata:0000000000000000 .LANCHOR0
/var/folders/p3/1m0sjft54dl35g20n661khb80000gn/T//ccm0rCo6.s:99     .text.rtcInit:0000000000000094 .L0 
/var/folders/p3/1m0sjft54dl35g20n661khb80000gn/T//ccm0rCo6.s:457    .text.startup.main:0000000000000230 .L0 
                     .debug_frame:0000000000000000 .L0 
/var/folders/p3/1m0sjft54dl35g20n661khb80000gn/T//ccm0rCo6.s:86     .text.rtcInit:000000000000008e .L1
/var/folders/p3/1m0sjft54dl35g20n661khb80000gn/T//ccm0rCo6.s:479    .rodata.main.str1.4:0000000000000000 .LC2
/var/folders/p3/1m0sjft54dl35g20n661khb80000gn/T//ccm0rCo6.s:283    .text.startup.main:0000000000000120 .L5
GAS LISTING /var/folders/p3/1m0sjft54dl35g20n661khb80000gn/T//ccm0rCo6.s 			page 18


/var/folders/p3/1m0sjft54dl35g20n661khb80000gn/T//ccm0rCo6.s:419    .text.startup.main:00000000000001fe .L6
/var/folders/p3/1m0sjft54dl35g20n661khb80000gn/T//ccm0rCo6.s:305    .text.startup.main:000000000000014e .L7
/var/folders/p3/1m0sjft54dl35g20n661khb80000gn/T//ccm0rCo6.s:232    .text.startup.main:00000000000000ca .L8
/var/folders/p3/1m0sjft54dl35g20n661khb80000gn/T//ccm0rCo6.s:338    .text.startup.main:0000000000000186 .L9
/var/folders/p3/1m0sjft54dl35g20n661khb80000gn/T//ccm0rCo6.s:444    .text.startup.main:0000000000000228 .L13
/var/folders/p3/1m0sjft54dl35g20n661khb80000gn/T//ccm0rCo6.s:356    .text.startup.main:000000000000019c .L11
/var/folders/p3/1m0sjft54dl35g20n661khb80000gn/T//ccm0rCo6.s:448    .text.startup.main:000000000000022c .L15
/var/folders/p3/1m0sjft54dl35g20n661khb80000gn/T//ccm0rCo6.s:228    .text.startup.main:00000000000000c8 .L12
/var/folders/p3/1m0sjft54dl35g20n661khb80000gn/T//ccm0rCo6.s:278    .text.startup.main:0000000000000116 .L22
/var/folders/p3/1m0sjft54dl35g20n661khb80000gn/T//ccm0rCo6.s:399    .text.startup.main:00000000000001d4 .L10
/var/folders/p3/1m0sjft54dl35g20n661khb80000gn/T//ccm0rCo6.s:3146   .debug_abbrev:0000000000000000 .Ldebug_abbrev0
/var/folders/p3/1m0sjft54dl35g20n661khb80000gn/T//ccm0rCo6.s:4295   .debug_str:0000000000000140 .LASF229
/var/folders/p3/1m0sjft54dl35g20n661khb80000gn/T//ccm0rCo6.s:4495   .debug_str:0000000000000621 .LASF230
/var/folders/p3/1m0sjft54dl35g20n661khb80000gn/T//ccm0rCo6.s:4601   .debug_str:0000000000000822 .LASF231
/var/folders/p3/1m0sjft54dl35g20n661khb80000gn/T//ccm0rCo6.s:4213   .debug_ranges:0000000000000000 .Ldebug_ranges0
/var/folders/p3/1m0sjft54dl35g20n661khb80000gn/T//ccm0rCo6.s:4229   .debug_line:0000000000000000 .Ldebug_line0
/var/folders/p3/1m0sjft54dl35g20n661khb80000gn/T//ccm0rCo6.s:4515   .debug_str:000000000000067c .LASF0
/var/folders/p3/1m0sjft54dl35g20n661khb80000gn/T//ccm0rCo6.s:4353   .debug_str:00000000000002f3 .LASF1
/var/folders/p3/1m0sjft54dl35g20n661khb80000gn/T//ccm0rCo6.s:4309   .debug_str:000000000000020a .LASF6
/var/folders/p3/1m0sjft54dl35g20n661khb80000gn/T//ccm0rCo6.s:4363   .debug_str:000000000000032c .LASF2
/var/folders/p3/1m0sjft54dl35g20n661khb80000gn/T//ccm0rCo6.s:4623   .debug_str:00000000000008c9 .LASF3
/var/folders/p3/1m0sjft54dl35g20n661khb80000gn/T//ccm0rCo6.s:4679   .debug_str:00000000000009d2 .LASF4
/var/folders/p3/1m0sjft54dl35g20n661khb80000gn/T//ccm0rCo6.s:4323   .debug_str:000000000000025e .LASF5
/var/folders/p3/1m0sjft54dl35g20n661khb80000gn/T//ccm0rCo6.s:4467   .debug_str:000000000000059c .LASF7
/var/folders/p3/1m0sjft54dl35g20n661khb80000gn/T//ccm0rCo6.s:4427   .debug_str:00000000000004b7 .LASF8
/var/folders/p3/1m0sjft54dl35g20n661khb80000gn/T//ccm0rCo6.s:4475   .debug_str:00000000000005c4 .LASF9
/var/folders/p3/1m0sjft54dl35g20n661khb80000gn/T//ccm0rCo6.s:4579   .debug_str:00000000000007a7 .LASF10
/var/folders/p3/1m0sjft54dl35g20n661khb80000gn/T//ccm0rCo6.s:4355   .debug_str:00000000000002ff .LASF11
/var/folders/p3/1m0sjft54dl35g20n661khb80000gn/T//ccm0rCo6.s:4663   .debug_str:0000000000000983 .LASF12
/var/folders/p3/1m0sjft54dl35g20n661khb80000gn/T//ccm0rCo6.s:4435   .debug_str:00000000000004e4 .LASF177
/var/folders/p3/1m0sjft54dl35g20n661khb80000gn/T//ccm0rCo6.s:4603   .debug_str:0000000000000877 .LASF13
/var/folders/p3/1m0sjft54dl35g20n661khb80000gn/T//ccm0rCo6.s:4611   .debug_str:0000000000000897 .LASF14
/var/folders/p3/1m0sjft54dl35g20n661khb80000gn/T//ccm0rCo6.s:4613   .debug_str:00000000000008a0 .LASF15
/var/folders/p3/1m0sjft54dl35g20n661khb80000gn/T//ccm0rCo6.s:4517   .debug_str:0000000000000689 .LASF16
/var/folders/p3/1m0sjft54dl35g20n661khb80000gn/T//ccm0rCo6.s:4653   .debug_str:0000000000000957 .LASF17
/var/folders/p3/1m0sjft54dl35g20n661khb80000gn/T//ccm0rCo6.s:4457   .debug_str:0000000000000555 .LASF18
/var/folders/p3/1m0sjft54dl35g20n661khb80000gn/T//ccm0rCo6.s:4271   .debug_str:00000000000000bf .LASF19
/var/folders/p3/1m0sjft54dl35g20n661khb80000gn/T//ccm0rCo6.s:4273   .debug_str:00000000000000ca .LASF20
/var/folders/p3/1m0sjft54dl35g20n661khb80000gn/T//ccm0rCo6.s:4275   .debug_str:00000000000000d5 .LASF21
/var/folders/p3/1m0sjft54dl35g20n661khb80000gn/T//ccm0rCo6.s:4277   .debug_str:00000000000000e0 .LASF22
/var/folders/p3/1m0sjft54dl35g20n661khb80000gn/T//ccm0rCo6.s:4279   .debug_str:00000000000000eb .LASF23
/var/folders/p3/1m0sjft54dl35g20n661khb80000gn/T//ccm0rCo6.s:4281   .debug_str:00000000000000f6 .LASF24
/var/folders/p3/1m0sjft54dl35g20n661khb80000gn/T//ccm0rCo6.s:4549   .debug_str:0000000000000727 .LASF25
/var/folders/p3/1m0sjft54dl35g20n661khb80000gn/T//ccm0rCo6.s:4345   .debug_str:00000000000002c5 .LASF26
/var/folders/p3/1m0sjft54dl35g20n661khb80000gn/T//ccm0rCo6.s:4347   .debug_str:00000000000002ce .LASF27
/var/folders/p3/1m0sjft54dl35g20n661khb80000gn/T//ccm0rCo6.s:4289   .debug_str:0000000000000124 .LASF28
/var/folders/p3/1m0sjft54dl35g20n661khb80000gn/T//ccm0rCo6.s:4291   .debug_str:000000000000012f .LASF29
/var/folders/p3/1m0sjft54dl35g20n661khb80000gn/T//ccm0rCo6.s:4255   .debug_str:0000000000000073 .LASF30
/var/folders/p3/1m0sjft54dl35g20n661khb80000gn/T//ccm0rCo6.s:4257   .debug_str:000000000000007d .LASF31
/var/folders/p3/1m0sjft54dl35g20n661khb80000gn/T//ccm0rCo6.s:4665   .debug_str:000000000000098c .LASF32
/var/folders/p3/1m0sjft54dl35g20n661khb80000gn/T//ccm0rCo6.s:4667   .debug_str:0000000000000995 .LASF33
/var/folders/p3/1m0sjft54dl35g20n661khb80000gn/T//ccm0rCo6.s:4379   .debug_str:00000000000003a3 .LASF34
/var/folders/p3/1m0sjft54dl35g20n661khb80000gn/T//ccm0rCo6.s:4381   .debug_str:00000000000003ac .LASF35
/var/folders/p3/1m0sjft54dl35g20n661khb80000gn/T//ccm0rCo6.s:4637   .debug_str:0000000000000913 .LASF36
/var/folders/p3/1m0sjft54dl35g20n661khb80000gn/T//ccm0rCo6.s:4243   .debug_str:0000000000000031 .LASF37
/var/folders/p3/1m0sjft54dl35g20n661khb80000gn/T//ccm0rCo6.s:4357   .debug_str:0000000000000307 .LASF38
/var/folders/p3/1m0sjft54dl35g20n661khb80000gn/T//ccm0rCo6.s:4561   .debug_str:0000000000000760 .LASF39
GAS LISTING /var/folders/p3/1m0sjft54dl35g20n661khb80000gn/T//ccm0rCo6.s 			page 19


/var/folders/p3/1m0sjft54dl35g20n661khb80000gn/T//ccm0rCo6.s:4439   .debug_str:00000000000004fc .LASF40
/var/folders/p3/1m0sjft54dl35g20n661khb80000gn/T//ccm0rCo6.s:4477   .debug_str:00000000000005d2 .LASF41
/var/folders/p3/1m0sjft54dl35g20n661khb80000gn/T//ccm0rCo6.s:4479   .debug_str:00000000000005dc .LASF42
/var/folders/p3/1m0sjft54dl35g20n661khb80000gn/T//ccm0rCo6.s:4481   .debug_str:00000000000005e6 .LASF43
/var/folders/p3/1m0sjft54dl35g20n661khb80000gn/T//ccm0rCo6.s:4483   .debug_str:00000000000005f0 .LASF44
/var/folders/p3/1m0sjft54dl35g20n661khb80000gn/T//ccm0rCo6.s:4485   .debug_str:00000000000005fa .LASF45
/var/folders/p3/1m0sjft54dl35g20n661khb80000gn/T//ccm0rCo6.s:4471   .debug_str:00000000000005b2 .LASF46
/var/folders/p3/1m0sjft54dl35g20n661khb80000gn/T//ccm0rCo6.s:4473   .debug_str:00000000000005bb .LASF47
/var/folders/p3/1m0sjft54dl35g20n661khb80000gn/T//ccm0rCo6.s:4269   .debug_str:00000000000000b4 .LASF48
/var/folders/p3/1m0sjft54dl35g20n661khb80000gn/T//ccm0rCo6.s:4343   .debug_str:00000000000002bc .LASF49
/var/folders/p3/1m0sjft54dl35g20n661khb80000gn/T//ccm0rCo6.s:4287   .debug_str:0000000000000119 .LASF50
/var/folders/p3/1m0sjft54dl35g20n661khb80000gn/T//ccm0rCo6.s:4325   .debug_str:0000000000000267 .LASF51
/var/folders/p3/1m0sjft54dl35g20n661khb80000gn/T//ccm0rCo6.s:4501   .debug_str:0000000000000641 .LASF52
/var/folders/p3/1m0sjft54dl35g20n661khb80000gn/T//ccm0rCo6.s:4369   .debug_str:000000000000035c .LASF53
/var/folders/p3/1m0sjft54dl35g20n661khb80000gn/T//ccm0rCo6.s:4401   .debug_str:0000000000000422 .LASF54
/var/folders/p3/1m0sjft54dl35g20n661khb80000gn/T//ccm0rCo6.s:4283   .debug_str:0000000000000101 .LASF55
/var/folders/p3/1m0sjft54dl35g20n661khb80000gn/T//ccm0rCo6.s:4693   .debug_str:0000000000000a37 .LASF56
/var/folders/p3/1m0sjft54dl35g20n661khb80000gn/T//ccm0rCo6.s:4465   .debug_str:0000000000000590 .LASF57
/var/folders/p3/1m0sjft54dl35g20n661khb80000gn/T//ccm0rCo6.s:4699   .debug_str:0000000000000a59 .LASF58
/var/folders/p3/1m0sjft54dl35g20n661khb80000gn/T//ccm0rCo6.s:4351   .debug_str:00000000000002e4 .LASF59
/var/folders/p3/1m0sjft54dl35g20n661khb80000gn/T//ccm0rCo6.s:4631   .debug_str:00000000000008f5 .LASF60
/var/folders/p3/1m0sjft54dl35g20n661khb80000gn/T//ccm0rCo6.s:4253   .debug_str:0000000000000065 .LASF61
/var/folders/p3/1m0sjft54dl35g20n661khb80000gn/T//ccm0rCo6.s:4505   .debug_str:0000000000000651 .LASF62
/var/folders/p3/1m0sjft54dl35g20n661khb80000gn/T//ccm0rCo6.s:4399   .debug_str:0000000000000412 .LASF63
/var/folders/p3/1m0sjft54dl35g20n661khb80000gn/T//ccm0rCo6.s:4671   .debug_str:00000000000009a6 .LASF64
/var/folders/p3/1m0sjft54dl35g20n661khb80000gn/T//ccm0rCo6.s:4377   .debug_str:0000000000000393 .LASF65
/var/folders/p3/1m0sjft54dl35g20n661khb80000gn/T//ccm0rCo6.s:4359   .debug_str:000000000000030f .LASF66
/var/folders/p3/1m0sjft54dl35g20n661khb80000gn/T//ccm0rCo6.s:4383   .debug_str:00000000000003b5 .LASF67
/var/folders/p3/1m0sjft54dl35g20n661khb80000gn/T//ccm0rCo6.s:4557   .debug_str:000000000000074a .LASF68
/var/folders/p3/1m0sjft54dl35g20n661khb80000gn/T//ccm0rCo6.s:4615   .debug_str:00000000000008a9 .LASF69
/var/folders/p3/1m0sjft54dl35g20n661khb80000gn/T//ccm0rCo6.s:4673   .debug_str:00000000000009b7 .LASF70
/var/folders/p3/1m0sjft54dl35g20n661khb80000gn/T//ccm0rCo6.s:4569   .debug_str:000000000000077b .LASF71
/var/folders/p3/1m0sjft54dl35g20n661khb80000gn/T//ccm0rCo6.s:4231   .debug_str:0000000000000000 .LASF72
/var/folders/p3/1m0sjft54dl35g20n661khb80000gn/T//ccm0rCo6.s:4307   .debug_str:0000000000000204 .LASF73
/var/folders/p3/1m0sjft54dl35g20n661khb80000gn/T//ccm0rCo6.s:4571   .debug_str:0000000000000783 .LASF74
/var/folders/p3/1m0sjft54dl35g20n661khb80000gn/T//ccm0rCo6.s:4551   .debug_str:0000000000000731 .LASF75
/var/folders/p3/1m0sjft54dl35g20n661khb80000gn/T//ccm0rCo6.s:4235   .debug_str:0000000000000014 .LASF76
/var/folders/p3/1m0sjft54dl35g20n661khb80000gn/T//ccm0rCo6.s:4605   .debug_str:000000000000087d .LASF77
/var/folders/p3/1m0sjft54dl35g20n661khb80000gn/T//ccm0rCo6.s:4661   .debug_str:000000000000097b .LASF78
/var/folders/p3/1m0sjft54dl35g20n661khb80000gn/T//ccm0rCo6.s:4441   .debug_str:0000000000000503 .LASF79
/var/folders/p3/1m0sjft54dl35g20n661khb80000gn/T//ccm0rCo6.s:4599   .debug_str:0000000000000819 .LASF80
/var/folders/p3/1m0sjft54dl35g20n661khb80000gn/T//ccm0rCo6.s:4449   .debug_str:000000000000052f .LASF85
/var/folders/p3/1m0sjft54dl35g20n661khb80000gn/T//ccm0rCo6.s:4617   .debug_str:00000000000008b0 .LASF81
/var/folders/p3/1m0sjft54dl35g20n661khb80000gn/T//ccm0rCo6.s:4455   .debug_str:000000000000054d .LASF82
/var/folders/p3/1m0sjft54dl35g20n661khb80000gn/T//ccm0rCo6.s:4509   .debug_str:0000000000000667 .LASF83
/var/folders/p3/1m0sjft54dl35g20n661khb80000gn/T//ccm0rCo6.s:4411   .debug_str:000000000000045c .LASF84
/var/folders/p3/1m0sjft54dl35g20n661khb80000gn/T//ccm0rCo6.s:4261   .debug_str:000000000000008f .LASF86
/var/folders/p3/1m0sjft54dl35g20n661khb80000gn/T//ccm0rCo6.s:4267   .debug_str:00000000000000ab .LASF87
/var/folders/p3/1m0sjft54dl35g20n661khb80000gn/T//ccm0rCo6.s:4695   .debug_str:0000000000000a43 .LASF88
/var/folders/p3/1m0sjft54dl35g20n661khb80000gn/T//ccm0rCo6.s:4681   .debug_str:00000000000009e5 .LASF89
/var/folders/p3/1m0sjft54dl35g20n661khb80000gn/T//ccm0rCo6.s:4527   .debug_str:00000000000006bf .LASF90
/var/folders/p3/1m0sjft54dl35g20n661khb80000gn/T//ccm0rCo6.s:4341   .debug_str:00000000000002b3 .LASF91
/var/folders/p3/1m0sjft54dl35g20n661khb80000gn/T//ccm0rCo6.s:4633   .debug_str:0000000000000904 .LASF92
/var/folders/p3/1m0sjft54dl35g20n661khb80000gn/T//ccm0rCo6.s:4555   .debug_str:0000000000000740 .LASF93
/var/folders/p3/1m0sjft54dl35g20n661khb80000gn/T//ccm0rCo6.s:4559   .debug_str:0000000000000756 .LASF94
/var/folders/p3/1m0sjft54dl35g20n661khb80000gn/T//ccm0rCo6.s:4691   .debug_str:0000000000000a2c .LASF95
/var/folders/p3/1m0sjft54dl35g20n661khb80000gn/T//ccm0rCo6.s:4315   .debug_str:000000000000021f .LASF96
GAS LISTING /var/folders/p3/1m0sjft54dl35g20n661khb80000gn/T//ccm0rCo6.s 			page 20


/var/folders/p3/1m0sjft54dl35g20n661khb80000gn/T//ccm0rCo6.s:4689   .debug_str:0000000000000a24 .LASF97
/var/folders/p3/1m0sjft54dl35g20n661khb80000gn/T//ccm0rCo6.s:4581   .debug_str:00000000000007be .LASF98
/var/folders/p3/1m0sjft54dl35g20n661khb80000gn/T//ccm0rCo6.s:4627   .debug_str:00000000000008dd .LASF99
/var/folders/p3/1m0sjft54dl35g20n661khb80000gn/T//ccm0rCo6.s:4651   .debug_str:000000000000094f .LASF100
/var/folders/p3/1m0sjft54dl35g20n661khb80000gn/T//ccm0rCo6.s:4545   .debug_str:0000000000000718 .LASF101
/var/folders/p3/1m0sjft54dl35g20n661khb80000gn/T//ccm0rCo6.s:4645   .debug_str:000000000000093c .LASF102
/var/folders/p3/1m0sjft54dl35g20n661khb80000gn/T//ccm0rCo6.s:4387   .debug_str:00000000000003ca .LASF103
/var/folders/p3/1m0sjft54dl35g20n661khb80000gn/T//ccm0rCo6.s:4647   .debug_str:0000000000000941 .LASF104
/var/folders/p3/1m0sjft54dl35g20n661khb80000gn/T//ccm0rCo6.s:4589   .debug_str:00000000000007e3 .LASF105
/var/folders/p3/1m0sjft54dl35g20n661khb80000gn/T//ccm0rCo6.s:4333   .debug_str:000000000000028e .LASF106
/var/folders/p3/1m0sjft54dl35g20n661khb80000gn/T//ccm0rCo6.s:4429   .debug_str:00000000000004c9 .LASF107
/var/folders/p3/1m0sjft54dl35g20n661khb80000gn/T//ccm0rCo6.s:4543   .debug_str:0000000000000711 .LASF108
/var/folders/p3/1m0sjft54dl35g20n661khb80000gn/T//ccm0rCo6.s:4313   .debug_str:0000000000000219 .LASF109
/var/folders/p3/1m0sjft54dl35g20n661khb80000gn/T//ccm0rCo6.s:4641   .debug_str:000000000000092e .LASF110
/var/folders/p3/1m0sjft54dl35g20n661khb80000gn/T//ccm0rCo6.s:4407   .debug_str:000000000000044e .LASF111
/var/folders/p3/1m0sjft54dl35g20n661khb80000gn/T//ccm0rCo6.s:4239   .debug_str:0000000000000021 .LASF112
/var/folders/p3/1m0sjft54dl35g20n661khb80000gn/T//ccm0rCo6.s:4245   .debug_str:0000000000000039 .LASF113
/var/folders/p3/1m0sjft54dl35g20n661khb80000gn/T//ccm0rCo6.s:4567   .debug_str:0000000000000775 .LASF114
/var/folders/p3/1m0sjft54dl35g20n661khb80000gn/T//ccm0rCo6.s:4389   .debug_str:00000000000003cf .LASF115
/var/folders/p3/1m0sjft54dl35g20n661khb80000gn/T//ccm0rCo6.s:4531   .debug_str:00000000000006ce .LASF116
/var/folders/p3/1m0sjft54dl35g20n661khb80000gn/T//ccm0rCo6.s:4265   .debug_str:00000000000000a5 .LASF117
/var/folders/p3/1m0sjft54dl35g20n661khb80000gn/T//ccm0rCo6.s:4587   .debug_str:00000000000007da .LASF118
/var/folders/p3/1m0sjft54dl35g20n661khb80000gn/T//ccm0rCo6.s:4419   .debug_str:0000000000000486 .LASF119
/var/folders/p3/1m0sjft54dl35g20n661khb80000gn/T//ccm0rCo6.s:4619   .debug_str:00000000000008b6 .LASF120
/var/folders/p3/1m0sjft54dl35g20n661khb80000gn/T//ccm0rCo6.s:4293   .debug_str:000000000000013a .LASF121
/var/folders/p3/1m0sjft54dl35g20n661khb80000gn/T//ccm0rCo6.s:4537   .debug_str:00000000000006ea .LASF122
/var/folders/p3/1m0sjft54dl35g20n661khb80000gn/T//ccm0rCo6.s:4433   .debug_str:00000000000004dc .LASF123
/var/folders/p3/1m0sjft54dl35g20n661khb80000gn/T//ccm0rCo6.s:4371   .debug_str:0000000000000366 .LASF124
/var/folders/p3/1m0sjft54dl35g20n661khb80000gn/T//ccm0rCo6.s:4443   .debug_str:0000000000000515 .LASF125
/var/folders/p3/1m0sjft54dl35g20n661khb80000gn/T//ccm0rCo6.s:4397   .debug_str:000000000000040b .LASF126
/var/folders/p3/1m0sjft54dl35g20n661khb80000gn/T//ccm0rCo6.s:4585   .debug_str:00000000000007d2 .LASF127
/var/folders/p3/1m0sjft54dl35g20n661khb80000gn/T//ccm0rCo6.s:4533   .debug_str:00000000000006d4 .LASF128
/var/folders/p3/1m0sjft54dl35g20n661khb80000gn/T//ccm0rCo6.s:4643   .debug_str:0000000000000937 .LASF129
/var/folders/p3/1m0sjft54dl35g20n661khb80000gn/T//ccm0rCo6.s:4469   .debug_str:00000000000005a7 .LASF130
/var/folders/p3/1m0sjft54dl35g20n661khb80000gn/T//ccm0rCo6.s:4367   .debug_str:0000000000000343 .LASF131
/var/folders/p3/1m0sjft54dl35g20n661khb80000gn/T//ccm0rCo6.s:4659   .debug_str:0000000000000973 .LASF132
/var/folders/p3/1m0sjft54dl35g20n661khb80000gn/T//ccm0rCo6.s:4431   .debug_str:00000000000004d1 .LASF133
/var/folders/p3/1m0sjft54dl35g20n661khb80000gn/T//ccm0rCo6.s:4459   .debug_str:000000000000055f .LASF134
/var/folders/p3/1m0sjft54dl35g20n661khb80000gn/T//ccm0rCo6.s:4669   .debug_str:000000000000099e .LASF135
/var/folders/p3/1m0sjft54dl35g20n661khb80000gn/T//ccm0rCo6.s:4329   .debug_str:000000000000027d .LASF136
/var/folders/p3/1m0sjft54dl35g20n661khb80000gn/T//ccm0rCo6.s:4425   .debug_str:00000000000004b2 .LASF137
/var/folders/p3/1m0sjft54dl35g20n661khb80000gn/T//ccm0rCo6.s:4499   .debug_str:0000000000000637 .LASF138
/var/folders/p3/1m0sjft54dl35g20n661khb80000gn/T//ccm0rCo6.s:4251   .debug_str:000000000000005d .LASF139
/var/folders/p3/1m0sjft54dl35g20n661khb80000gn/T//ccm0rCo6.s:4421   .debug_str:000000000000048e .LASF140
/var/folders/p3/1m0sjft54dl35g20n661khb80000gn/T//ccm0rCo6.s:4529   .debug_str:00000000000006c9 .LASF141
/var/folders/p3/1m0sjft54dl35g20n661khb80000gn/T//ccm0rCo6.s:4461   .debug_str:0000000000000569 .LASF142
/var/folders/p3/1m0sjft54dl35g20n661khb80000gn/T//ccm0rCo6.s:4415   .debug_str:0000000000000470 .LASF143
/var/folders/p3/1m0sjft54dl35g20n661khb80000gn/T//ccm0rCo6.s:4489   .debug_str:000000000000060b .LASF144
/var/folders/p3/1m0sjft54dl35g20n661khb80000gn/T//ccm0rCo6.s:4237   .debug_str:000000000000001c .LASF145
/var/folders/p3/1m0sjft54dl35g20n661khb80000gn/T//ccm0rCo6.s:4385   .debug_str:00000000000003c5 .LASF146
/var/folders/p3/1m0sjft54dl35g20n661khb80000gn/T//ccm0rCo6.s:4547   .debug_str:0000000000000720 .LASF147
/var/folders/p3/1m0sjft54dl35g20n661khb80000gn/T//ccm0rCo6.s:4507   .debug_str:0000000000000661 .LASF148
/var/folders/p3/1m0sjft54dl35g20n661khb80000gn/T//ccm0rCo6.s:4487   .debug_str:0000000000000604 .LASF149
/var/folders/p3/1m0sjft54dl35g20n661khb80000gn/T//ccm0rCo6.s:4503   .debug_str:000000000000064b .LASF150
/var/folders/p3/1m0sjft54dl35g20n661khb80000gn/T//ccm0rCo6.s:4583   .debug_str:00000000000007ca .LASF151
/var/folders/p3/1m0sjft54dl35g20n661khb80000gn/T//ccm0rCo6.s:4565   .debug_str:000000000000076f .LASF152
/var/folders/p3/1m0sjft54dl35g20n661khb80000gn/T//ccm0rCo6.s:4297   .debug_str:00000000000001c8 .LASF153
GAS LISTING /var/folders/p3/1m0sjft54dl35g20n661khb80000gn/T//ccm0rCo6.s 			page 21


/var/folders/p3/1m0sjft54dl35g20n661khb80000gn/T//ccm0rCo6.s:4677   .debug_str:00000000000009cd .LASF154
/var/folders/p3/1m0sjft54dl35g20n661khb80000gn/T//ccm0rCo6.s:4349   .debug_str:00000000000002d7 .LASF155
/var/folders/p3/1m0sjft54dl35g20n661khb80000gn/T//ccm0rCo6.s:4593   .debug_str:00000000000007f2 .LASF156
/var/folders/p3/1m0sjft54dl35g20n661khb80000gn/T//ccm0rCo6.s:4249   .debug_str:0000000000000050 .LASF157
/var/folders/p3/1m0sjft54dl35g20n661khb80000gn/T//ccm0rCo6.s:4335   .debug_str:0000000000000294 .LASF158
/var/folders/p3/1m0sjft54dl35g20n661khb80000gn/T//ccm0rCo6.s:4497   .debug_str:0000000000000628 .LASF159
/var/folders/p3/1m0sjft54dl35g20n661khb80000gn/T//ccm0rCo6.s:4539   .debug_str:00000000000006f3 .LASF160
/var/folders/p3/1m0sjft54dl35g20n661khb80000gn/T//ccm0rCo6.s:4609   .debug_str:0000000000000892 .LASF161
/var/folders/p3/1m0sjft54dl35g20n661khb80000gn/T//ccm0rCo6.s:4621   .debug_str:00000000000008bc .LASF162
/var/folders/p3/1m0sjft54dl35g20n661khb80000gn/T//ccm0rCo6.s:4577   .debug_str:0000000000000799 .LASF163
/var/folders/p3/1m0sjft54dl35g20n661khb80000gn/T//ccm0rCo6.s:4535   .debug_str:00000000000006dc .LASF164
/var/folders/p3/1m0sjft54dl35g20n661khb80000gn/T//ccm0rCo6.s:4573   .debug_str:000000000000078a .LASF165
/var/folders/p3/1m0sjft54dl35g20n661khb80000gn/T//ccm0rCo6.s:4445   .debug_str:000000000000051c .LASF166
/var/folders/p3/1m0sjft54dl35g20n661khb80000gn/T//ccm0rCo6.s:4697   .debug_str:0000000000000a4c .LASF167
/var/folders/p3/1m0sjft54dl35g20n661khb80000gn/T//ccm0rCo6.s:4321   .debug_str:0000000000000250 .LASF168
/var/folders/p3/1m0sjft54dl35g20n661khb80000gn/T//ccm0rCo6.s:4595   .debug_str:00000000000007ff .LASF169
/var/folders/p3/1m0sjft54dl35g20n661khb80000gn/T//ccm0rCo6.s:4685   .debug_str:00000000000009fb .LASF170
/var/folders/p3/1m0sjft54dl35g20n661khb80000gn/T//ccm0rCo6.s:4525   .debug_str:00000000000006b0 .LASF171
/var/folders/p3/1m0sjft54dl35g20n661khb80000gn/T//ccm0rCo6.s:4263   .debug_str:0000000000000094 .LASF172
/var/folders/p3/1m0sjft54dl35g20n661khb80000gn/T//ccm0rCo6.s:4519   .debug_str:0000000000000691 .LASF173
/var/folders/p3/1m0sjft54dl35g20n661khb80000gn/T//ccm0rCo6.s:4655   .debug_str:0000000000000960 .LASF174
/var/folders/p3/1m0sjft54dl35g20n661khb80000gn/T//ccm0rCo6.s:4491   .debug_str:0000000000000613 .LASF175
/var/folders/p3/1m0sjft54dl35g20n661khb80000gn/T//ccm0rCo6.s:4259   .debug_str:0000000000000087 .LASF176
/var/folders/p3/1m0sjft54dl35g20n661khb80000gn/T//ccm0rCo6.s:4233   .debug_str:0000000000000009 .LASF232
/var/folders/p3/1m0sjft54dl35g20n661khb80000gn/T//ccm0rCo6.s:4327   .debug_str:0000000000000271 .LASF178
/var/folders/p3/1m0sjft54dl35g20n661khb80000gn/T//ccm0rCo6.s:4375   .debug_str:0000000000000380 .LASF179
/var/folders/p3/1m0sjft54dl35g20n661khb80000gn/T//ccm0rCo6.s:4625   .debug_str:00000000000008d3 .LASF180
/var/folders/p3/1m0sjft54dl35g20n661khb80000gn/T//ccm0rCo6.s:4597   .debug_str:000000000000080e .LASF181
/var/folders/p3/1m0sjft54dl35g20n661khb80000gn/T//ccm0rCo6.s:4337   .debug_str:00000000000002a3 .LASF233
/var/folders/p3/1m0sjft54dl35g20n661khb80000gn/T//ccm0rCo6.s:104    .text.startup.main:0000000000000000 .LFB3
/var/folders/p3/1m0sjft54dl35g20n661khb80000gn/T//ccm0rCo6.s:455    .text.startup.main:0000000000000230 .LFE3
/var/folders/p3/1m0sjft54dl35g20n661khb80000gn/T//ccm0rCo6.s:3944   .debug_loc:0000000000000000 .LLST1
/var/folders/p3/1m0sjft54dl35g20n661khb80000gn/T//ccm0rCo6.s:3957   .debug_loc:0000000000000021 .LLST2
/var/folders/p3/1m0sjft54dl35g20n661khb80000gn/T//ccm0rCo6.s:3978   .debug_loc:0000000000000057 .LLST3
/var/folders/p3/1m0sjft54dl35g20n661khb80000gn/T//ccm0rCo6.s:3998   .debug_loc:000000000000008c .LLST4
/var/folders/p3/1m0sjft54dl35g20n661khb80000gn/T//ccm0rCo6.s:4311   .debug_str:0000000000000214 .LASF182
/var/folders/p3/1m0sjft54dl35g20n661khb80000gn/T//ccm0rCo6.s:4017   .debug_loc:00000000000000c0 .LLST5
/var/folders/p3/1m0sjft54dl35g20n661khb80000gn/T//ccm0rCo6.s:4046   .debug_loc:000000000000010c .LLST6
/var/folders/p3/1m0sjft54dl35g20n661khb80000gn/T//ccm0rCo6.s:4635   .debug_str:000000000000090e .LASF183
/var/folders/p3/1m0sjft54dl35g20n661khb80000gn/T//ccm0rCo6.s:4068   .debug_loc:0000000000000143 .LLST7
/var/folders/p3/1m0sjft54dl35g20n661khb80000gn/T//ccm0rCo6.s:4403   .debug_str:000000000000042d .LASF184
/var/folders/p3/1m0sjft54dl35g20n661khb80000gn/T//ccm0rCo6.s:4409   .debug_str:0000000000000456 .LASF185
/var/folders/p3/1m0sjft54dl35g20n661khb80000gn/T//ccm0rCo6.s:4591   .debug_str:00000000000007e9 .LASF186
/var/folders/p3/1m0sjft54dl35g20n661khb80000gn/T//ccm0rCo6.s:4089   .debug_loc:0000000000000179 .LLST8
/var/folders/p3/1m0sjft54dl35g20n661khb80000gn/T//ccm0rCo6.s:4607   .debug_str:0000000000000888 .LASF187
/var/folders/p3/1m0sjft54dl35g20n661khb80000gn/T//ccm0rCo6.s:4521   .debug_str:000000000000069a .LASF188
/var/folders/p3/1m0sjft54dl35g20n661khb80000gn/T//ccm0rCo6.s:4112   .debug_loc:00000000000001b1 .LLST9
/var/folders/p3/1m0sjft54dl35g20n661khb80000gn/T//ccm0rCo6.s:4657   .debug_str:0000000000000967 .LASF189
/var/folders/p3/1m0sjft54dl35g20n661khb80000gn/T//ccm0rCo6.s:4124   .debug_loc:00000000000001d0 .LLST10
/var/folders/p3/1m0sjft54dl35g20n661khb80000gn/T//ccm0rCo6.s:4493   .debug_str:000000000000061c .LASF190
/var/folders/p3/1m0sjft54dl35g20n661khb80000gn/T//ccm0rCo6.s:4159   .debug_loc:0000000000000214 .LLST11
/var/folders/p3/1m0sjft54dl35g20n661khb80000gn/T//ccm0rCo6.s:4575   .debug_str:0000000000000794 .LASF191
/var/folders/p3/1m0sjft54dl35g20n661khb80000gn/T//ccm0rCo6.s:4331   .debug_str:0000000000000287 .LASF192
/var/folders/p3/1m0sjft54dl35g20n661khb80000gn/T//ccm0rCo6.s:4683   .debug_str:00000000000009ef .LASF194
/var/folders/p3/1m0sjft54dl35g20n661khb80000gn/T//ccm0rCo6.s:239    .text.startup.main:00000000000000d2 .LVL28
/var/folders/p3/1m0sjft54dl35g20n661khb80000gn/T//ccm0rCo6.s:242    .text.startup.main:00000000000000da .LVL29
/var/folders/p3/1m0sjft54dl35g20n661khb80000gn/T//ccm0rCo6.s:254    .text.startup.main:00000000000000e8 .LVL31
GAS LISTING /var/folders/p3/1m0sjft54dl35g20n661khb80000gn/T//ccm0rCo6.s 			page 22


/var/folders/p3/1m0sjft54dl35g20n661khb80000gn/T//ccm0rCo6.s:262    .text.startup.main:00000000000000f8 .LVL32
/var/folders/p3/1m0sjft54dl35g20n661khb80000gn/T//ccm0rCo6.s:270    .text.startup.main:0000000000000108 .LVL33
/var/folders/p3/1m0sjft54dl35g20n661khb80000gn/T//ccm0rCo6.s:275    .text.startup.main:0000000000000114 .LVL34
/var/folders/p3/1m0sjft54dl35g20n661khb80000gn/T//ccm0rCo6.s:282    .text.startup.main:0000000000000120 .LVL35
/var/folders/p3/1m0sjft54dl35g20n661khb80000gn/T//ccm0rCo6.s:289    .text.startup.main:000000000000012c .LVL36
/var/folders/p3/1m0sjft54dl35g20n661khb80000gn/T//ccm0rCo6.s:296    .text.startup.main:0000000000000138 .LVL37
/var/folders/p3/1m0sjft54dl35g20n661khb80000gn/T//ccm0rCo6.s:304    .text.startup.main:000000000000014e .LVL38
/var/folders/p3/1m0sjft54dl35g20n661khb80000gn/T//ccm0rCo6.s:309    .text.startup.main:0000000000000156 .LVL39
/var/folders/p3/1m0sjft54dl35g20n661khb80000gn/T//ccm0rCo6.s:314    .text.startup.main:0000000000000160 .LVL40
/var/folders/p3/1m0sjft54dl35g20n661khb80000gn/T//ccm0rCo6.s:316    .text.startup.main:0000000000000168 .LVL41
/var/folders/p3/1m0sjft54dl35g20n661khb80000gn/T//ccm0rCo6.s:334    .text.startup.main:0000000000000184 .LVL45
/var/folders/p3/1m0sjft54dl35g20n661khb80000gn/T//ccm0rCo6.s:342    .text.startup.main:000000000000018e .LVL47
/var/folders/p3/1m0sjft54dl35g20n661khb80000gn/T//ccm0rCo6.s:370    .text.startup.main:00000000000001b8 .LVL52
/var/folders/p3/1m0sjft54dl35g20n661khb80000gn/T//ccm0rCo6.s:395    .text.startup.main:00000000000001d2 .LVL57
/var/folders/p3/1m0sjft54dl35g20n661khb80000gn/T//ccm0rCo6.s:404    .text.startup.main:00000000000001e2 .LVL59
/var/folders/p3/1m0sjft54dl35g20n661khb80000gn/T//ccm0rCo6.s:409    .text.startup.main:00000000000001ee .LVL60
/var/folders/p3/1m0sjft54dl35g20n661khb80000gn/T//ccm0rCo6.s:415    .text.startup.main:00000000000001fa .LVL61
/var/folders/p3/1m0sjft54dl35g20n661khb80000gn/T//ccm0rCo6.s:424    .text.startup.main:0000000000000208 .LVL63
/var/folders/p3/1m0sjft54dl35g20n661khb80000gn/T//ccm0rCo6.s:434    .text.startup.main:0000000000000218 .LVL66
/var/folders/p3/1m0sjft54dl35g20n661khb80000gn/T//ccm0rCo6.s:439    .text.startup.main:0000000000000224 .LVL67
/var/folders/p3/1m0sjft54dl35g20n661khb80000gn/T//ccm0rCo6.s:148    .text.startup.main:0000000000000032 .LVL14
/var/folders/p3/1m0sjft54dl35g20n661khb80000gn/T//ccm0rCo6.s:154    .text.startup.main:000000000000003a .LVL15
/var/folders/p3/1m0sjft54dl35g20n661khb80000gn/T//ccm0rCo6.s:157    .text.startup.main:0000000000000042 .LVL16
/var/folders/p3/1m0sjft54dl35g20n661khb80000gn/T//ccm0rCo6.s:160    .text.startup.main:000000000000004a .LVL17
/var/folders/p3/1m0sjft54dl35g20n661khb80000gn/T//ccm0rCo6.s:163    .text.startup.main:0000000000000052 .LVL18
/var/folders/p3/1m0sjft54dl35g20n661khb80000gn/T//ccm0rCo6.s:167    .text.startup.main:000000000000005c .LVL19
/var/folders/p3/1m0sjft54dl35g20n661khb80000gn/T//ccm0rCo6.s:171    .text.startup.main:0000000000000066 .LVL20
/var/folders/p3/1m0sjft54dl35g20n661khb80000gn/T//ccm0rCo6.s:177    .text.startup.main:0000000000000070 .LVL21
/var/folders/p3/1m0sjft54dl35g20n661khb80000gn/T//ccm0rCo6.s:181    .text.startup.main:000000000000007c .LVL22
/var/folders/p3/1m0sjft54dl35g20n661khb80000gn/T//ccm0rCo6.s:190    .text.startup.main:0000000000000096 .LVL23
/var/folders/p3/1m0sjft54dl35g20n661khb80000gn/T//ccm0rCo6.s:201    .text.startup.main:00000000000000a8 .LVL24
/var/folders/p3/1m0sjft54dl35g20n661khb80000gn/T//ccm0rCo6.s:207    .text.startup.main:00000000000000b2 .LVL25
/var/folders/p3/1m0sjft54dl35g20n661khb80000gn/T//ccm0rCo6.s:4703   .debug_str:0000000000000a6e .LASF234
/var/folders/p3/1m0sjft54dl35g20n661khb80000gn/T//ccm0rCo6.s:14     .text.rtcInit:0000000000000000 .LFB2
/var/folders/p3/1m0sjft54dl35g20n661khb80000gn/T//ccm0rCo6.s:97     .text.rtcInit:0000000000000094 .LFE2
/var/folders/p3/1m0sjft54dl35g20n661khb80000gn/T//ccm0rCo6.s:4170   .debug_loc:0000000000000232 .LLST0
/var/folders/p3/1m0sjft54dl35g20n661khb80000gn/T//ccm0rCo6.s:30     .text.rtcInit:0000000000000010 .LVL0
/var/folders/p3/1m0sjft54dl35g20n661khb80000gn/T//ccm0rCo6.s:33     .text.rtcInit:0000000000000018 .LVL1
/var/folders/p3/1m0sjft54dl35g20n661khb80000gn/T//ccm0rCo6.s:37     .text.rtcInit:0000000000000024 .LVL2
/var/folders/p3/1m0sjft54dl35g20n661khb80000gn/T//ccm0rCo6.s:40     .text.rtcInit:000000000000002c .LVL3
/var/folders/p3/1m0sjft54dl35g20n661khb80000gn/T//ccm0rCo6.s:45     .text.rtcInit:0000000000000036 .LVL4
/var/folders/p3/1m0sjft54dl35g20n661khb80000gn/T//ccm0rCo6.s:51     .text.rtcInit:0000000000000044 .LVL5
/var/folders/p3/1m0sjft54dl35g20n661khb80000gn/T//ccm0rCo6.s:56     .text.rtcInit:0000000000000052 .LVL6
/var/folders/p3/1m0sjft54dl35g20n661khb80000gn/T//ccm0rCo6.s:59     .text.rtcInit:000000000000005a .LVL7
/var/folders/p3/1m0sjft54dl35g20n661khb80000gn/T//ccm0rCo6.s:62     .text.rtcInit:0000000000000062 .LVL8
/var/folders/p3/1m0sjft54dl35g20n661khb80000gn/T//ccm0rCo6.s:67     .text.rtcInit:0000000000000070 .LVL9
/var/folders/p3/1m0sjft54dl35g20n661khb80000gn/T//ccm0rCo6.s:70     .text.rtcInit:0000000000000078 .LVL10
/var/folders/p3/1m0sjft54dl35g20n661khb80000gn/T//ccm0rCo6.s:74     .text.rtcInit:0000000000000082 .LVL11
/var/folders/p3/1m0sjft54dl35g20n661khb80000gn/T//ccm0rCo6.s:85     .text.rtcInit:000000000000008e .LVL12
/var/folders/p3/1m0sjft54dl35g20n661khb80000gn/T//ccm0rCo6.s:4285   .debug_str:000000000000010c .LASF193
/var/folders/p3/1m0sjft54dl35g20n661khb80000gn/T//ccm0rCo6.s:4523   .debug_str:00000000000006a3 .LASF195
/var/folders/p3/1m0sjft54dl35g20n661khb80000gn/T//ccm0rCo6.s:4405   .debug_str:0000000000000437 .LASF196
/var/folders/p3/1m0sjft54dl35g20n661khb80000gn/T//ccm0rCo6.s:4453   .debug_str:000000000000053e .LASF197
/var/folders/p3/1m0sjft54dl35g20n661khb80000gn/T//ccm0rCo6.s:4629   .debug_str:00000000000008e6 .LASF198
/var/folders/p3/1m0sjft54dl35g20n661khb80000gn/T//ccm0rCo6.s:4541   .debug_str:00000000000006fe .LASF199
/var/folders/p3/1m0sjft54dl35g20n661khb80000gn/T//ccm0rCo6.s:4361   .debug_str:000000000000031f .LASF200
/var/folders/p3/1m0sjft54dl35g20n661khb80000gn/T//ccm0rCo6.s:4451   .debug_str:0000000000000537 .LASF201
GAS LISTING /var/folders/p3/1m0sjft54dl35g20n661khb80000gn/T//ccm0rCo6.s 			page 23


/var/folders/p3/1m0sjft54dl35g20n661khb80000gn/T//ccm0rCo6.s:4513   .debug_str:0000000000000675 .LASF202
/var/folders/p3/1m0sjft54dl35g20n661khb80000gn/T//ccm0rCo6.s:4447   .debug_str:0000000000000528 .LASF203
/var/folders/p3/1m0sjft54dl35g20n661khb80000gn/T//ccm0rCo6.s:4299   .debug_str:00000000000001ce .LASF204
/var/folders/p3/1m0sjft54dl35g20n661khb80000gn/T//ccm0rCo6.s:4305   .debug_str:00000000000001fc .LASF205
/var/folders/p3/1m0sjft54dl35g20n661khb80000gn/T//ccm0rCo6.s:4701   .debug_str:0000000000000a68 .LASF206
/var/folders/p3/1m0sjft54dl35g20n661khb80000gn/T//ccm0rCo6.s:4423   .debug_str:0000000000000496 .LASF207
/var/folders/p3/1m0sjft54dl35g20n661khb80000gn/T//ccm0rCo6.s:4303   .debug_str:00000000000001e6 .LASF208
/var/folders/p3/1m0sjft54dl35g20n661khb80000gn/T//ccm0rCo6.s:4649   .debug_str:0000000000000948 .LASF235
/var/folders/p3/1m0sjft54dl35g20n661khb80000gn/T//ccm0rCo6.s:4301   .debug_str:00000000000001d5 .LASF236
/var/folders/p3/1m0sjft54dl35g20n661khb80000gn/T//ccm0rCo6.s:4563   .debug_str:0000000000000768 .LASF209
/var/folders/p3/1m0sjft54dl35g20n661khb80000gn/T//ccm0rCo6.s:4395   .debug_str:0000000000000403 .LASF210
/var/folders/p3/1m0sjft54dl35g20n661khb80000gn/T//ccm0rCo6.s:4437   .debug_str:00000000000004f4 .LASF211
/var/folders/p3/1m0sjft54dl35g20n661khb80000gn/T//ccm0rCo6.s:4511   .debug_str:000000000000066d .LASF212
/var/folders/p3/1m0sjft54dl35g20n661khb80000gn/T//ccm0rCo6.s:4247   .debug_str:0000000000000040 .LASF213
/var/folders/p3/1m0sjft54dl35g20n661khb80000gn/T//ccm0rCo6.s:4417   .debug_str:000000000000047a .LASF214
/var/folders/p3/1m0sjft54dl35g20n661khb80000gn/T//ccm0rCo6.s:4365   .debug_str:000000000000033a .LASF215
/var/folders/p3/1m0sjft54dl35g20n661khb80000gn/T//ccm0rCo6.s:4241   .debug_str:0000000000000027 .LASF216
/var/folders/p3/1m0sjft54dl35g20n661khb80000gn/T//ccm0rCo6.s:4319   .debug_str:0000000000000244 .LASF217
/var/folders/p3/1m0sjft54dl35g20n661khb80000gn/T//ccm0rCo6.s:4553   .debug_str:0000000000000739 .LASF218
/var/folders/p3/1m0sjft54dl35g20n661khb80000gn/T//ccm0rCo6.s:4463   .debug_str:0000000000000572 .LASF219
/var/folders/p3/1m0sjft54dl35g20n661khb80000gn/T//ccm0rCo6.s:4687   .debug_str:0000000000000a0c .LASF220
/var/folders/p3/1m0sjft54dl35g20n661khb80000gn/T//ccm0rCo6.s:4393   .debug_str:00000000000003eb .LASF221
/var/folders/p3/1m0sjft54dl35g20n661khb80000gn/T//ccm0rCo6.s:4339   .debug_str:00000000000002a8 .LASF222
/var/folders/p3/1m0sjft54dl35g20n661khb80000gn/T//ccm0rCo6.s:4373   .debug_str:000000000000036d .LASF223
/var/folders/p3/1m0sjft54dl35g20n661khb80000gn/T//ccm0rCo6.s:4391   .debug_str:00000000000003d6 .LASF224
/var/folders/p3/1m0sjft54dl35g20n661khb80000gn/T//ccm0rCo6.s:4317   .debug_str:000000000000022d .LASF225
/var/folders/p3/1m0sjft54dl35g20n661khb80000gn/T//ccm0rCo6.s:4413   .debug_str:0000000000000461 .LASF226
/var/folders/p3/1m0sjft54dl35g20n661khb80000gn/T//ccm0rCo6.s:4639   .debug_str:000000000000091c .LASF227
/var/folders/p3/1m0sjft54dl35g20n661khb80000gn/T//ccm0rCo6.s:4675   .debug_str:00000000000009be .LASF228
/var/folders/p3/1m0sjft54dl35g20n661khb80000gn/T//ccm0rCo6.s:112    .text.startup.main:0000000000000002 .LCFI4
/var/folders/p3/1m0sjft54dl35g20n661khb80000gn/T//ccm0rCo6.s:108    .text.startup.main:0000000000000000 .LVL13
/var/folders/p3/1m0sjft54dl35g20n661khb80000gn/T//ccm0rCo6.s:227    .text.startup.main:00000000000000c8 .LVL26
/var/folders/p3/1m0sjft54dl35g20n661khb80000gn/T//ccm0rCo6.s:231    .text.startup.main:00000000000000ca .LVL27
/var/folders/p3/1m0sjft54dl35g20n661khb80000gn/T//ccm0rCo6.s:326    .text.startup.main:0000000000000172 .LVL43
/var/folders/p3/1m0sjft54dl35g20n661khb80000gn/T//ccm0rCo6.s:337    .text.startup.main:0000000000000186 .LVL46
/var/folders/p3/1m0sjft54dl35g20n661khb80000gn/T//ccm0rCo6.s:329    .text.startup.main:0000000000000176 .LVL44
/var/folders/p3/1m0sjft54dl35g20n661khb80000gn/T//ccm0rCo6.s:344    .text.startup.main:0000000000000190 .LVL48
/var/folders/p3/1m0sjft54dl35g20n661khb80000gn/T//ccm0rCo6.s:367    .text.startup.main:00000000000001ae .LVL51
/var/folders/p3/1m0sjft54dl35g20n661khb80000gn/T//ccm0rCo6.s:398    .text.startup.main:00000000000001d4 .LVL58
/var/folders/p3/1m0sjft54dl35g20n661khb80000gn/T//ccm0rCo6.s:443    .text.startup.main:0000000000000228 .LVL68
/var/folders/p3/1m0sjft54dl35g20n661khb80000gn/T//ccm0rCo6.s:447    .text.startup.main:000000000000022c .LVL69
/var/folders/p3/1m0sjft54dl35g20n661khb80000gn/T//ccm0rCo6.s:355    .text.startup.main:000000000000019c .LVL50
/var/folders/p3/1m0sjft54dl35g20n661khb80000gn/T//ccm0rCo6.s:418    .text.startup.main:00000000000001fe .LVL62
/var/folders/p3/1m0sjft54dl35g20n661khb80000gn/T//ccm0rCo6.s:350    .text.startup.main:0000000000000196 .LVL49
/var/folders/p3/1m0sjft54dl35g20n661khb80000gn/T//ccm0rCo6.s:377    .text.startup.main:00000000000001be .LVL53
/var/folders/p3/1m0sjft54dl35g20n661khb80000gn/T//ccm0rCo6.s:451    .text.startup.main:000000000000022e .LVL70
/var/folders/p3/1m0sjft54dl35g20n661khb80000gn/T//ccm0rCo6.s:386    .text.startup.main:00000000000001c4 .LVL54
/var/folders/p3/1m0sjft54dl35g20n661khb80000gn/T//ccm0rCo6.s:389    .text.startup.main:00000000000001c8 .LVL55
/var/folders/p3/1m0sjft54dl35g20n661khb80000gn/T//ccm0rCo6.s:429    .text.startup.main:000000000000020e .LVL64
/var/folders/p3/1m0sjft54dl35g20n661khb80000gn/T//ccm0rCo6.s:432    .text.startup.main:0000000000000210 .LVL65
/var/folders/p3/1m0sjft54dl35g20n661khb80000gn/T//ccm0rCo6.s:21     .text.rtcInit:0000000000000002 .LCFI0
/var/folders/p3/1m0sjft54dl35g20n661khb80000gn/T//ccm0rCo6.s:81     .text.rtcInit:0000000000000086 .LCFI1
/var/folders/p3/1m0sjft54dl35g20n661khb80000gn/T//ccm0rCo6.s:87     .text.rtcInit:000000000000008e .LCFI2
/var/folders/p3/1m0sjft54dl35g20n661khb80000gn/T//ccm0rCo6.s:93     .text.rtcInit:0000000000000092 .LCFI3
/var/folders/p3/1m0sjft54dl35g20n661khb80000gn/T//ccm0rCo6.s:505    .debug_info:0000000000000000 .Ldebug_info0
/var/folders/p3/1m0sjft54dl35g20n661khb80000gn/T//ccm0rCo6.s:193    .text.startup.main:0000000000000098 .LBB2
/var/folders/p3/1m0sjft54dl35g20n661khb80000gn/T//ccm0rCo6.s:198    .text.startup.main:00000000000000a0 .LBE2
GAS LISTING /var/folders/p3/1m0sjft54dl35g20n661khb80000gn/T//ccm0rCo6.s 			page 24


/var/folders/p3/1m0sjft54dl35g20n661khb80000gn/T//ccm0rCo6.s:218    .text.startup.main:00000000000000bc .LBB3
/var/folders/p3/1m0sjft54dl35g20n661khb80000gn/T//ccm0rCo6.s:233    .text.startup.main:00000000000000ca .LBE3
/var/folders/p3/1m0sjft54dl35g20n661khb80000gn/T//ccm0rCo6.s:235    .text.startup.main:00000000000000ca .LBB4
/var/folders/p3/1m0sjft54dl35g20n661khb80000gn/T//ccm0rCo6.s:453    .text.startup.main:0000000000000230 .LBE4

UNDEFINED SYMBOLS
rcu_periph_clock_enable
pmu_backup_write_enable
bkp_deinit
rcu_osci_stab_wait
rcu_rtc_clock_config
rtc_register_sync_wait
rtc_lwoff_wait
rtc_prescaler_set
rtc_flag_clear
memcpy
t5omsi
colinit
l88init
keyinit
ADC3powerUpInit
Lcd_SetType
Lcd_Init
LCD_Clear
LCD_ShowStr
u0init
eclic_global_interrupt_enable
LCD_WR_Queue
u0_TX_Queue
adc_flag_get
adc_inserted_data_read
adc_flag_clear
usart_flag_get
usart_data_receive
LCD_ShowChar
t5expq
colset
l88row
l88mem
keyscan
putch
adc_software_trigger_enable
adc_regular_data_read
